(dp1
S'OriginalConfig'
p2
ccopy_reg
_reconstructor
p3
(cWMCore.Configuration
Configuration
p4
c__builtin__
object
p5
NtRp6
(dp7
S'Site'
p8
g3
(cWMCore.Configuration
ConfigSection
p9
g5
NtRp10
(dp11
S'_internal_skipChecks'
p12
I00
sS'_internal_documentation'
p13
S''
sS'_internal_settings'
p14
c__builtin__
set
p15
((lp16
S'storageSite'
p17
atRp18
sS'_internal_name'
p19
g8
sS'_internal_docstrings'
p20
(dp21
sS'_internal_children'
p22
g15
((ltRp23
sg17
S'T2_BR_UERJ'
p24
sS'_internal_parent_ref'
p25
NsbsS'_internal_sections'
p26
(lp27
S'General'
p28
aS'JobType'
p29
aS'Data'
p30
ag8
aS'User'
p31
aS'Debug'
p32
asg28
g3
(g9
g5
NtRp33
(dp34
S'transferLogs'
p35
I01
sg12
I00
sg13
S''
sg14
g15
((lp36
g35
aS'transferOutputs'
p37
aS'workArea'
p38
aS'requestName'
p39
atRp40
sg19
g28
sg20
(dp41
sg37
I01
sg22
g15
((ltRp42
sg39
S'Data17DoubleMuonRunE_AOD'
p43
sg25
Nsg38
S'Data17ULtest'
p44
sbsS'_internal_webapps'
p45
(lp46
sg31
g3
(g9
g5
NtRp47
(dp48
g12
I00
sg13
S''
sg14
g15
((ltRp49
sg19
g31
sg20
(dp50
sg22
g15
((ltRp51
sg25
NsbsS'_internal_components'
p52
(lp53
sg32
g3
(g9
g5
NtRp54
(dp55
g12
I00
sg13
S''
sg14
g15
((ltRp56
sg19
g32
sg20
(dp57
sg22
g15
((ltRp58
sg25
Nsbsg30
g3
(g9
g5
NtRp59
(dp60
S'inputDataset'
p61
S'/DoubleMuon/Run2017E-09Aug2019_UL2017-v1/AOD'
p62
sS'ignoreLocality'
p63
I00
sg12
I00
sS'unitsPerJob'
p64
I1
sg13
S''
sg14
g15
((lp65
g61
aS'outputDatasetTag'
p66
aS'publication'
p67
ag64
ag63
aS'inputDBS'
p68
aS'splitting'
p69
aS'outLFNDirBase'
p70
aS'totalUnits'
p71
atRp72
sg70
S'/store/user/mabarros/Data17DoubleMuonSet'
p73
sg19
g30
sg69
S'FileBased'
p74
sg20
(dp75
sg66
g43
sg22
g15
((ltRp76
sg67
I00
sg68
S'global'
p77
sg25
Nsg71
I1000000
sbsg29
g3
(g9
g5
NtRp78
(dp79
S'outputFiles'
p80
(lp81
S'Data17DoubleMuonRunE_AOD.root'
p82
asg12
I00
sg13
S''
sg14
g15
((lp83
S'psetName'
p84
aS'pluginName'
p85
ag80
aS'maxMemoryMB'
p86
atRp87
sg19
g29
sg20
(dp88
sg85
S'Analysis'
p89
sg22
g15
((ltRp90
sg84
S'nanoanalyzer_cfg.py'
p91
sg25
Nsg86
I2500
sbsbsS'voGroup'
p92
S''
sS'Server'
p93
S'cmsweb.cern.ch'
p94
sS'instance'
p95
S'prod'
p96
sS'RequestName'
p97
V200614_174808:mabarros_crab_Data17DoubleMuonRunE_AOD
p98
sS'voRole'
p99
S'NULL'
p100
sS'Port'
p101
S''
s.