ccopy_reg
_reconstructor
p0
(cFWCore.ParameterSet.Config
Process
p1
c__builtin__
object
p2
Ntp3
Rp4
(dp5
S'CaloGeometryBuilder'
p6
g0
(cFWCore.ParameterSet.Modules
ESProducer
p7
g2
Ntp8
Rp9
(dp10
S'_Parameterizable__parameterNames'
p11
(lp12
S'SelectedCalos'
p13
asS'_isFrozen'
p14
I00
sS'_isModified'
p15
I00
sS'_lineNumber'
p16
I56
sS'_filename'
p17
S'/cvmfs/cms.cern.ch/slc7_amd64_gcc700/cms/cmssw/CMSSW_10_6_12/python/FWCore/ParameterSet/Modules.py'
p18
sg13
g0
(cFWCore.ParameterSet.Types
vstring
p19
c__builtin__
list
p20
(lp21
S'HCAL'
p22
aS'ZDC'
p23
aS'CASTOR'
p24
aS'EcalBarrel'
p25
aS'EcalEndcap'
p26
aS'EcalPreshower'
p27
aS'TOWER'
p28
atp29
Rp30
(dp31
g14
I00
sS'_ParameterTypeBase__isTracked'
p32
I01
sg15
I00
sS'_nPerLine'
p33
I1
sbsS'_Labelable__label'
p34
g6
sS'_TypedParameterizable__type'
p35
g6
sbsS'_Process__sequences'
p36
(dp37
S'endOfProcess_withComparison'
p38
g0
(cFWCore.ParameterSet.SequenceTypes
Sequence
p39
g2
Ntp40
Rp41
(dp42
g14
I00
sS'_seq'
p43
g0
(cFWCore.ParameterSet.SequenceTypes
_SequenceCollection
p44
g2
Ntp45
Rp46
(dp47
S'_collection'
p48
(lp49
g0
(cFWCore.ParameterSet.Modules
EDProducer
p50
g2
Ntp51
Rp52
(dp53
g11
(lp54
S'deleteAfterCopy'
p55
aS'Verbosity'
p56
aS'Frequency'
p57
aS'Name'
p58
aS'MEPathToSave'
p59
asg14
I00
sg15
I00
sg55
g0
(cFWCore.ParameterSet.Types
bool
p60
g2
Ntp61
Rp62
(dp63
g14
I00
sg32
I00
sS'_value'
p64
I01
sg15
I00
sbsg17
S'/cvmfs/cms.cern.ch/slc7_amd64_gcc700/cms/cmssw/CMSSW_10_6_12/python/DQMServices/Components/MEtoEDMConverter_cfi.py'
p65
sg56
g0
(cFWCore.ParameterSet.Types
int32
p66
g2
Ntp67
Rp68
(dp69
g14
I00
sg32
I00
sg64
I0
sg15
I00
sbsg57
g0
(g66
g2
Ntp70
Rp71
(dp72
g14
I00
sg32
I00
sg64
I50
sg15
I00
sbsg16
I10
sg34
S'MEtoEDMConverter'
p73
sg59
g0
(cFWCore.ParameterSet.Types
string
p74
g2
Ntp75
Rp76
(dp77
g14
I00
sg32
I00
sg64
S''
p78
sg15
I00
sbsg35
g73
sg58
g0
(g74
g2
Ntp79
Rp80
(dp81
g14
I00
sg32
I00
sg64
g73
sg15
I00
sbsbag0
(cFWCore.ParameterSet.Modules
EDAnalyzer
p82
g2
Ntp83
Rp84
(dp85
g11
(lp86
S'Diffgoodness'
p87
aS'processRef'
p88
aS'dirDepth'
p89
aS'KSgoodness'
p90
aS'runInstance'
p91
aS'MEtoEDMLabel'
p92
aS'autoProcess'
p93
aS'processNew'
p94
aS'OverAllgoodness'
p95
aS'lumiInstance'
p96
asg14
I00
sg87
g0
(cFWCore.ParameterSet.Types
double
p97
g2
Ntp98
Rp99
(dp100
g14
I00
sg32
I01
sg64
F0.1
sg15
I00
sbsg88
g0
(g74
g2
Ntp101
Rp102
(dp103
g14
I00
sg32
I01
sg64
S'HLT'
p104
sg15
I00
sbsg15
I00
sg16
I20
sg89
g0
(cFWCore.ParameterSet.Types
uint32
p105
g2
Ntp106
Rp107
(dp108
g14
I00
sg32
I01
sg64
I1
sg15
I00
sbsg17
S'/cvmfs/cms.cern.ch/slc7_amd64_gcc700/cms/cmssw/CMSSW_10_6_12/python/DQMServices/Components/MEtoMEComparitor_cfi.py'
p109
sg90
g0
(g97
g2
Ntp110
Rp111
(dp112
g14
I00
sg32
I01
sg64
F0.9
sg15
I00
sbsg91
g0
(g74
g2
Ntp113
Rp114
(dp115
g14
I00
sg32
I01
sg64
S'MEtoEDMConverterRun'
p116
sg15
I00
sbsg92
g0
(g74
g2
Ntp117
Rp118
(dp119
g14
I00
sg32
I01
sg64
g73
sg15
I00
sbsg96
g0
(g74
g2
Ntp120
Rp121
(dp122
g14
I00
sg32
I01
sg64
S'MEtoEDMConverterLumi'
p123
sg15
I00
sbsg93
g0
(g60
g2
Ntp124
Rp125
(dp126
g14
I00
sg32
I01
sg64
I01
sg15
I00
sbsg34
S'MEtoMEComparitor'
p127
sg94
g0
(g74
g2
Ntp128
Rp129
(dp130
g14
I00
sg32
I01
sg64
S'RERECO'
p131
sg15
I00
sbsg95
g0
(g97
g2
Ntp132
Rp133
(dp134
g14
I00
sg32
I01
sg64
F0.9
sg15
I00
sbsg35
g127
sbasbsg34
g38
sg15
I00
sS'_tasks'
p135
g0
(cFWCore.ParameterSet.OrderedSet
OrderedSet
p136
g2
Ntp137
Rp138
(dp139
S'map'
p140
(dp141
sS'end'
p142
(lp143
Nag143
ag143
asbsbsS'endOfProcess'
p144
g0
(g39
g2
Ntp145
Rp146
(dp147
g14
I00
sg43
g0
(g44
g2
Ntp148
Rp149
(dp150
g48
(lp151
g52
asbsg34
g144
sg15
I00
sg135
g0
(g136
g2
Ntp152
Rp153
(dp154
g140
(dp155
sg142
(lp156
Nag156
ag156
asbsbssS'_Process__source'
p157
g0
(cFWCore.ParameterSet.Modules
Source
p158
g2
Ntp159
Rp160
(dp161
g11
(lp162
S'fileNames'
p163
aS'lumisToProcess'
p164
aS'skipEvents'
p165
asg14
I00
sg15
I01
sg16
I196
sg17
g18
sg165
g0
(g105
g2
Ntp166
Rp167
(dp168
g14
I00
sg32
I00
sg64
I0
sg15
I00
sbsg163
g0
(g19
g20
(lp169
g78
atp170
Rp171
(dp172
g14
I00
sg32
I00
sg15
I00
sg33
I1
sbsg164
g0
(cFWCore.ParameterSet.Types
VLuminosityBlockRange
p173
g20
(lp174
S'297050:12-297050:137'
p175
aS'297050:193-297050:776'
p176
aS'297056:12-297056:203'
p177
aS'297057:1-297057:4'
p178
aS'297057:14-297057:105'
p179
aS'297057:112-297057:377'
p180
aS'297057:385-297057:418'
p181
aS'297057:424-297057:509'
p182
aS'297057:516-297057:906'
p183
aS'297099:24-297099:62'
p184
aS'297100:1-297100:15'
p185
aS'297100:21-297100:369'
p186
aS'297100:375-297100:381'
p187
aS'297101:1-297101:668'
p188
aS'297101:673-297101:697'
p189
aS'297101:700-297101:856'
p190
aS'297101:862-297101:937'
p191
aS'297101:943-297101:1101'
p192
aS'297113:1-297113:204'
p193
aS'297113:211-297113:252'
p194
aS'297114:1-297114:99'
p195
aS'297114:106-297114:161'
p196
aS'297175:1-297175:85'
p197
aS'297176:11-297176:120'
p198
aS'297176:125-297176:214'
p199
aS'297177:1-297177:162'
p200
aS'297178:1-297178:54'
p201
aS'297178:59-297178:334'
p202
aS'297178:342-297178:749'
p203
aS'297178:754-297178:967'
p204
aS'297178:972-297178:1037'
p205
aS'297178:1043-297178:1264'
p206
aS'297178:1272-297178:1282'
p207
aS'297178:1290-297178:1385'
p208
aS'297179:1-297179:6'
p209
aS'297179:12-297179:97'
p210
aS'297215:1-297215:47'
p211
aS'297218:1-297218:27'
p212
aS'297219:1-297219:80'
p213
aS'297219:85-297219:281'
p214
aS'297219:288-297219:579'
p215
aS'297219:585-297219:916'
p216
aS'297219:921-297219:1429'
p217
aS'297219:1436-297219:2004'
p218
aS'297219:2010-297219:2638'
p219
aS'297224:10-297224:19'
p220
aS'297224:24-297224:138'
p221
aS'297225:1-297225:32'
p222
aS'297227:9-297227:192'
p223
aS'297292:1-297292:125'
p224
aS'297292:130-297292:131'
p225
aS'297292:136-297292:667'
p226
aS'297292:675-297292:753'
p227
aS'297293:1-297293:121'
p228
aS'297293:127-297293:150'
p229
aS'297296:1-297296:236'
p230
aS'297296:240-297296:401'
p231
aS'297296:406-297296:418'
p232
aS'297296:425-297296:497'
p233
aS'297308:1-297308:44'
p234
aS'297359:39-297359:70'
p235
aS'297359:164-297359:180'
p236
aS'297411:32-297411:737'
p237
aS'297411:740-297411:800'
p238
aS'297411:807-297411:950'
p239
aS'297424:32-297424:149'
p240
aS'297425:1-297425:107'
p241
aS'297425:112-297425:157'
p242
aS'297426:1-297426:28'
p243
aS'297426:34-297426:84'
p244
aS'297426:90-297426:111'
p245
aS'297429:1-297429:72'
p246
aS'297430:1-297430:199'
p247
aS'297431:1-297431:49'
p248
aS'297431:55-297431:64'
p249
aS'297431:71-297431:188'
p250
aS'297432:1-297432:112'
p251
aS'297433:1-297433:159'
p252
aS'297434:1-297434:161'
p253
aS'297435:1-297435:94'
p254
aS'297467:50-297467:138'
p255
aS'297468:1-297468:74'
p256
aS'297469:1-297469:4'
p257
aS'297469:9-297469:70'
p258
aS'297483:37-297483:68'
p259
aS'297483:71-297483:201'
p260
aS'297483:206-297483:214'
p261
aS'297484:1-297484:47'
p262
aS'297484:53-297484:208'
p263
aS'297484:214'
p264
aS'297485:1-297485:16'
p265
aS'297485:23-297485:253'
p266
aS'297485:258-297485:299'
p267
aS'297485:302-297485:314'
p268
aS'297485:321-297485:420'
p269
aS'297486:1-297486:74'
p270
aS'297486:79-297486:598'
p271
aS'297486:603-297486:625'
p272
aS'297487:1-297487:433'
p273
aS'297487:439-297487:491'
p274
aS'297487:495-297487:603'
p275
aS'297487:609-297487:613'
p276
aS'297488:1-297488:73'
p277
aS'297488:80-297488:424'
p278
aS'297503:5-297503:275'
p279
aS'297503:282-297503:559'
p280
aS'297503:566-297503:606'
p281
aS'297503:612-297503:635'
p282
aS'297503:642-297503:772'
p283
aS'297503:777-297503:779'
p284
aS'297504:1-297504:41'
p285
aS'297504:125-297504:136'
p286
aS'297505:1-297505:394'
p287
aS'297557:8-297557:28'
p288
aS'297557:67-297557:113'
p289
aS'297557:119-297557:167'
p290
aS'297557:173-297557:174'
p291
aS'297557:180-297557:394'
p292
aS'297558:9-297558:266'
p293
aS'297562:1-297562:69'
p294
aS'297562:120-297562:369'
p295
aS'297563:1-297563:254'
p296
aS'297563:260-297563:264'
p297
aS'297598:17'
p298
aS'297598:22-297598:33'
p299
aS'297599:1-297599:169'
p300
aS'297599:211-297599:225'
p301
aS'297599:230-297599:312'
p302
aS'297599:319-297599:385'
p303
aS'297599:395-297599:407'
p304
aS'297603:1-297603:420'
p305
aS'297604:1-297604:126'
p306
aS'297604:131-297604:272'
p307
aS'297604:279-297604:375'
p308
aS'297604:381-297604:407'
p309
aS'297605:1-297605:6'
p310
aS'297605:13-297605:20'
p311
aS'297605:24-297605:89'
p312
aS'297605:95-297605:223'
p313
aS'297605:257-297605:407'
p314
aS'297606:1-297606:94'
p315
aS'297606:99-297606:231'
p316
aS'297620:32-297620:318'
p317
aS'297656:64-297656:116'
p318
aS'297656:123-297656:135'
p319
aS'297656:140-297656:230'
p320
aS'297656:269-297656:307'
p321
aS'297656:313-297656:330'
p322
aS'297656:341-297656:388'
p323
aS'297656:393-297656:433'
p324
aS'297665:1-297665:153'
p325
aS'297665:159-297665:209'
p326
aS'297665:214-297665:279'
p327
aS'297666:1-297666:11'
p328
aS'297666:17-297666:81'
p329
aS'297666:86-297666:121'
p330
aS'297670:21-297670:34'
p331
aS'297674:3-297674:102'
p332
aS'297674:108-297674:188'
p333
aS'297675:1-297675:123'
p334
aS'297675:129-297675:239'
p335
aS'297675:244-297675:328'
p336
aS'297675:334-297675:467'
p337
aS'297675:470-297675:471'
p338
aS'297722:55-297722:160'
p339
aS'297722:165-297722:353'
p340
aS'297723:1-297723:13'
p341
aS'297723:51-297723:222'
p342
aS'298996:33-298996:216'
p343
aS'298997:1-298997:37'
p344
aS'298997:47'
p345
aS'299000:4-299000:77'
p346
aS'299042:33-299042:55'
p347
aS'299061:38-299061:355'
p348
aS'299062:1-299062:163'
p349
aS'299062:166-299062:303'
p350
aS'299064:7-299064:85'
p351
aS'299065:13-299065:248'
p352
aS'299065:251-299065:342'
p353
aS'299067:1-299067:459'
p354
aS'299096:2-299096:97'
p355
aS'299149:29-299149:470'
p356
aS'299178:37-299178:56'
p357
aS'299178:58-299178:111'
p358
aS'299180:5-299180:98'
p359
aS'299184:1-299184:561'
p360
aS'299185:1-299185:120'
p361
aS'299327:1-299327:72'
p362
aS'299329:1-299329:172'
p363
aS'299368:37-299368:175'
p364
aS'299369:1-299369:303'
p365
aS'299370:1-299370:7'
p366
aS'299370:47-299370:705'
p367
aS'299380:34-299380:227'
p368
aS'299381:1-299381:45'
p369
aS'299394:5-299394:33'
p370
aS'299395:1-299395:187'
p371
aS'299396:1-299396:81'
p372
aS'299420:2-299420:50'
p373
aS'299443:145-299443:164'
p374
aS'299450:39-299450:88'
p375
aS'299477:39-299477:42'
p376
aS'299477:82-299477:87'
p377
aS'299478:1-299478:175'
p378
aS'299479:1-299479:123'
p379
aS'299480:1-299480:6'
p380
aS'299480:8-299480:715'
p381
aS'299481:1-299481:196'
p382
aS'299481:199-299481:236'
p383
aS'299481:260-299481:479'
p384
aS'299481:487-299481:940'
p385
aS'299481:943-299481:1037'
p386
aS'299481:1061-299481:1257'
p387
aS'299593:95-299593:177'
p388
aS'299593:179-299593:896'
p389
aS'299594:1-299594:317'
p390
aS'299595:1-299595:134'
p391
aS'299595:138'
p392
aS'299597:3-299597:91'
p393
aS'299597:93-299597:540'
p394
aS'299649:151-299649:332'
p395
aS'300087:36-300087:59'
p396
aS'300087:61-300087:126'
p397
aS'300087:128-300087:216'
p398
aS'300087:218-300087:239'
p399
aS'300105:1-300105:21'
p400
aS'300106:1-300106:74'
p401
aS'300107:1-300107:28'
p402
aS'300107:30-300107:47'
p403
aS'300117:35-300117:67'
p404
aS'300122:46-300122:730'
p405
aS'300122:735-300122:924'
p406
aS'300122:927-300122:1295'
p407
aS'300123:1-300123:384'
p408
aS'300123:387-300123:612'
p409
aS'300155:35-300155:1229'
p410
aS'300156:1-300156:72'
p411
aS'300157:9-300157:1107'
p412
aS'300226:43-300226:448'
p413
aS'300233:43-300233:162'
p414
aS'300234:1-300234:59'
p415
aS'300235:1-300235:187'
p416
aS'300236:11-300236:187'
p417
aS'300237:1-300237:713'
p418
aS'300237:716-300237:717'
p419
aS'300238:30-300238:58'
p420
aS'300238:62-300238:329'
p421
aS'300239:1-300239:145'
p422
aS'300239:148-300239:167'
p423
aS'300239:171-300239:213'
p424
aS'300240:1-300240:7'
p425
aS'300240:11-300240:46'
p426
aS'300240:51-300240:362'
p427
aS'300280:52-300280:56'
p428
aS'300280:61-300280:69'
p429
aS'300280:73-300280:150'
p430
aS'300280:155-300280:165'
p431
aS'300280:178-300280:198'
p432
aS'300280:207-300280:222'
p433
aS'300280:226-300280:251'
p434
aS'300280:255-300280:268'
p435
aS'300280:275-300280:345'
p436
aS'300280:349-300280:370'
p437
aS'300280:381-300280:548'
p438
aS'300280:553-300280:607'
p439
aS'300280:617-300280:639'
p440
aS'300280:663-300280:691'
p441
aS'300281:3-300281:8'
p442
aS'300282:1-300282:9'
p443
aS'300282:13-300282:59'
p444
aS'300282:73-300282:92'
p445
aS'300282:97-300282:114'
p446
aS'300282:142-300282:151'
p447
aS'300282:156-300282:186'
p448
aS'300283:1-300283:34'
p449
aS'300284:1-300284:22'
p450
aS'300284:38-300284:47'
p451
aS'300284:50-300284:82'
p452
aS'300284:90-300284:98'
p453
aS'300284:108-300284:130'
p454
aS'300284:133-300284:152'
p455
aS'300284:156-300284:250'
p456
aS'300284:260-300284:414'
p457
aS'300284:420-300284:561'
p458
aS'300284:568-300284:585'
p459
aS'300284:590-300284:680'
p460
aS'300284:691-300284:751'
p461
aS'300364:27-300364:46'
p462
aS'300372:1-300372:8'
p463
aS'300375:1-300375:93'
p464
aS'300389:1'
p465
aS'300389:4-300389:5'
p466
aS'300389:8'
p467
aS'300389:11-300389:20'
p468
aS'300389:23-300389:39'
p469
aS'300389:60-300389:149'
p470
aS'300399:1-300399:20'
p471
aS'300400:1-300400:677'
p472
aS'300401:19-300401:673'
p473
aS'300459:40-300459:332'
p474
aS'300461:1-300461:98'
p475
aS'300462:1-300462:97'
p476
aS'300463:1-300463:124'
p477
aS'300464:1-300464:103'
p478
aS'300464:126-300464:265'
p479
aS'300466:1-300466:650'
p480
aS'300467:1-300467:563'
p481
aS'300497:26-300497:175'
p482
aS'300514:38-300514:150'
p483
aS'300515:1-300515:838'
p484
aS'300515:957-300515:1013'
p485
aS'300516:1-300516:111'
p486
aS'300517:1-300517:8'
p487
aS'300517:103-300517:623'
p488
aS'300558:8-300558:548'
p489
aS'300560:1-300560:640'
p490
aS'300560:645-300560:844'
p491
aS'300574:15-300574:111'
p492
aS'300575:1-300575:82'
p493
aS'300576:7-300576:123'
p494
aS'300576:125-300576:1206'
p495
aS'300631:41-300631:49'
p496
aS'300631:63-300631:66'
p497
aS'300631:75-300631:226'
p498
aS'300632:1-300632:21'
p499
aS'300633:1-300633:447'
p500
aS'300635:1-300635:23'
p501
aS'300635:26-300635:176'
p502
aS'300636:1-300636:335'
p503
aS'300636:338-300636:1572'
p504
aS'300673:41-300673:47'
p505
aS'300673:49'
p506
aS'300673:52-300673:56'
p507
aS'300673:59-300673:66'
p508
aS'300674:1-300674:33'
p509
aS'300675:1-300675:33'
p510
aS'300676:1-300676:26'
p511
aS'300742:56-300742:343'
p512
aS'300777:21-300777:509'
p513
aS'300780:3-300780:341'
p514
aS'300785:1-300785:549'
p515
aS'300785:552-300785:750'
p516
aS'300785:752-300785:1201'
p517
aS'300785:1219-300785:1272'
p518
aS'300806:36-300806:214'
p519
aS'300811:6-300811:508'
p520
aS'300812:1-300812:59'
p521
aS'300816:6-300816:161'
p522
aS'300817:1-300817:33'
p523
aS'300817:36-300817:74'
p524
aS'300817:80-300817:383'
p525
aS'300817:410-300817:493'
p526
aS'301046:162-301046:223'
p527
aS'301141:25-301141:31'
p528
aS'301142:1-301142:897'
p529
aS'301161:36-301161:805'
p530
aS'301165:1-301165:145'
p531
aS'301179:35-301179:59'
p532
aS'301180:1-301180:97'
p533
aS'301183:3-301183:10'
p534
aS'301183:13-301183:303'
p535
aS'301281:38-301281:157'
p536
aS'301283:3-301283:886'
p537
aS'301298:45-301298:949'
p538
aS'301323:35-301323:474'
p539
aS'301323:477-301323:990'
p540
aS'301330:22-301330:353'
p541
aS'301359:33-301359:319'
p542
aS'301384:1-301384:476'
p543
aS'301391:38-301391:214'
p544
aS'301392:1-301392:627'
p545
aS'301393:2-301393:18'
p546
aS'301396:1-301396:33'
p547
aS'301397:1-301397:228'
p548
aS'301397:231-301397:517'
p549
aS'301397:519-301397:728'
p550
aS'301398:1-301398:9'
p551
aS'301399:1-301399:108'
p552
aS'301417:50-301417:367'
p553
aS'301447:86-301447:96'
p554
aS'301447:99-301447:400'
p555
aS'301447:404-301447:512'
p556
aS'301448:1-301448:329'
p557
aS'301449:1-301449:404'
p558
aS'301450:1-301450:173'
p559
aS'301461:28-301461:581'
p560
aS'301472:35-301472:830'
p561
aS'301475:1-301475:18'
p562
aS'301476:1-301476:844'
p563
aS'301519:42-301519:250'
p564
aS'301524:1-301524:110'
p565
aS'301524:117-301524:263'
p566
aS'301529:1-301529:49'
p567
aS'301530:1-301530:110'
p568
aS'301531:1-301531:394'
p569
aS'301532:1-301532:611'
p570
aS'301567:14-301567:372'
p571
aS'301627:57-301627:943'
p572
aS'301664:28-301664:445'
p573
aS'301665:1-301665:294'
p574
aS'301665:319-301665:487'
p575
aS'301694:36-301694:102'
p576
aS'301912:43-301912:52'
p577
aS'301912:101-301912:422'
p578
aS'301913:1-301913:58'
p579
aS'301914:1-301914:350'
p580
aS'301941:31-301941:568'
p581
aS'301959:30-301959:1938'
p582
aS'301960:1-301960:147'
p583
aS'301970:6-301970:123'
p584
aS'301984:17-301984:317'
p585
aS'301985:1-301985:367'
p586
aS'301986:1-301986:381'
p587
aS'301987:1-301987:1128'
p588
aS'301997:37-301997:407'
p589
aS'301998:1-301998:1704'
p590
aS'302019:34-302019:86'
p591
aS'302026:24-302026:53'
p592
aS'302026:66-302026:72'
p593
aS'302029:1-302029:98'
p594
aS'302031:1-302031:401'
p595
aS'302031:403-302031:446'
p596
aS'302031:448-302031:675'
p597
aS'302031:678-302031:818'
p598
aS'302033:1-302033:40'
p599
aS'302033:44-302033:46'
p600
aS'302034:1-302034:20'
p601
aS'302037:18-302037:20'
p602
aS'302038:10'
p603
aS'302040:1-302040:174'
p604
aS'302041:1-302041:72'
p605
aS'302042:1-302042:523'
p606
aS'302043:1-302043:228'
p607
aS'302131:71-302131:943'
p608
aS'302159:33-302159:140'
p609
aS'302163:32-302163:671'
p610
aS'302163:674-302163:1230'
p611
aS'302165:1-302165:85'
p612
aS'302166:1-302166:16'
p613
aS'302225:54-302225:133'
p614
aS'302225:136-302225:923'
p615
aS'302228:58-302228:78'
p616
aS'302228:81-302228:293'
p617
aS'302229:1-302229:457'
p618
aS'302240:1-302240:960'
p619
aS'302262:37-302262:471'
p620
aS'302263:1-302263:1250'
p621
aS'302277:15-302277:17'
p622
aS'302277:22-302277:192'
p623
aS'302277:194-302277:391'
p624
aS'302279:1-302279:71'
p625
aS'302280:1-302280:152'
p626
aS'302322:33-302322:870'
p627
aS'302328:42-302328:722'
p628
aS'302337:27-302337:162'
p629
aS'302342:19-302342:72'
p630
aS'302343:1-302343:98'
p631
aS'302344:3-302344:482'
p632
aS'302350:1-302350:136'
p633
aS'302388:27-302388:157'
p634
aS'302388:164-302388:717'
p635
aS'302392:45-302392:407'
p636
aS'302393:1-302393:887'
p637
aS'302448:21-302448:312'
p638
aS'302448:317-302448:442'
p639
aS'302448:445-302448:483'
p640
aS'302448:486-302448:1926'
p641
aS'302472:28-302472:808'
p642
aS'302473:1-302473:368'
p643
aS'302473:398-302473:406'
p644
aS'302474:1-302474:305'
p645
aS'302475:1-302475:7'
p646
aS'302476:1-302476:259'
p647
aS'302479:30-302479:222'
p648
aS'302479:225-302479:340'
p649
aS'302484:8-302484:176'
p650
aS'302485:1-302485:922'
p651
aS'302492:10-302492:21'
p652
aS'302492:23-302492:59'
p653
aS'302493:1-302493:7'
p654
aS'302494:1-302494:618'
p655
aS'302509:73-302509:92'
p656
aS'302513:37-302513:89'
p657
aS'302522:29-302522:46'
p658
aS'302523:1-302523:59'
p659
aS'302525:1-302525:677'
p660
aS'302525:747-302525:778'
p661
aS'302526:1-302526:582'
p662
aS'302548:40-302548:124'
p663
aS'302551:1-302551:7'
p664
aS'302553:1-302553:188'
p665
aS'302554:1-302554:7'
p666
aS'302555:1-302555:11'
p667
aS'302563:40-302563:46'
p668
aS'302565:1-302565:7'
p669
aS'302572:6-302572:291'
p670
aS'302573:1-302573:693'
p671
aS'302573:730-302573:1285'
p672
aS'302596:47-302596:534'
p673
aS'302596:545-302596:705'
p674
aS'302596:710-302596:986'
p675
aS'302597:1-302597:1054'
p676
aS'302634:37-302634:73'
p677
aS'302634:75-302634:123'
p678
aS'302634:125-302634:129'
p679
aS'302634:133-302634:165'
p680
aS'302634:168-302634:175'
p681
aS'302634:177-302634:216'
p682
aS'302634:218-302634:358'
p683
aS'302634:361-302634:375'
p684
aS'302634:378-302634:404'
p685
aS'302634:407-302634:423'
p686
aS'302634:425-302634:503'
p687
aS'302634:505-302634:578'
p688
aS'302634:581-302634:594'
p689
aS'302634:596-302634:638'
p690
aS'302635:1-302635:22'
p691
aS'302635:24-302635:28'
p692
aS'302635:30-302635:39'
p693
aS'302635:41-302635:53'
p694
aS'302635:55-302635:132'
p695
aS'302635:134-302635:144'
p696
aS'302635:146-302635:265'
p697
aS'302635:267-302635:271'
p698
aS'302635:274-302635:344'
p699
aS'302635:347-302635:357'
p700
aS'302635:359-302635:375'
p701
aS'302635:378-302635:384'
p702
aS'302635:386-302635:414'
p703
aS'302635:416-302635:494'
p704
aS'302635:497-302635:608'
p705
aS'302635:611-302635:634'
p706
aS'302635:637-302635:684'
p707
aS'302635:687-302635:706'
p708
aS'302635:708-302635:724'
p709
aS'302635:726-302635:901'
p710
aS'302635:904-302635:954'
p711
aS'302635:957-302635:982'
p712
aS'302635:984-302635:1072'
p713
aS'302635:1075-302635:1124'
p714
aS'302635:1126-302635:1129'
p715
aS'302635:1132-302635:1206'
p716
aS'302635:1209-302635:1234'
p717
aS'302635:1236-302635:1291'
p718
aS'302651:1-302651:149'
p719
aS'302654:1-302654:317'
p720
aS'302661:1-302661:72'
p721
aS'302663:1-302663:706'
p722
aS'303825:1-303825:180'
p723
aS'303832:54-303832:1334'
p724
aS'303832:1338-303832:1913'
p725
aS'303838:54'
p726
aS'303838:83-303838:2044'
p727
aS'303885:60-303885:2052'
p728
aS'303948:55-303948:1678'
p729
aS'303998:58-303998:319'
p730
aS'303999:1-303999:751'
p731
aS'304000:1-304000:56'
p732
aS'304062:54-304062:2014'
p733
aS'304119:71-304119:138'
p734
aS'304119:143-304119:150'
p735
aS'304120:1-304120:253'
p736
aS'304125:1-304125:1769'
p737
aS'304144:76-304144:2596'
p738
aS'304144:2598-304144:2656'
p739
aS'304158:165-304158:1750'
p740
aS'304158:1752-304158:2087'
p741
aS'304169:50-304169:1714'
p742
aS'304169:1731-304169:1733'
p743
aS'304170:1-304170:620'
p744
aS'304199:10-304199:18'
p745
aS'304200:1-304200:321'
p746
aS'304204:55-304204:607'
p747
aS'304209:52-304209:98'
p748
aS'304209:100-304209:133'
p749
aS'304209:135-304209:157'
p750
aS'304209:176-304209:253'
p751
aS'304209:255-304209:477'
p752
aS'304291:56-304291:85'
p753
aS'304292:1-304292:1125'
p754
aS'304292:1183-304292:1779'
p755
aS'304292:1781-304292:1811'
p756
aS'304333:74-304333:1653'
p757
aS'304354:82-304354:295'
p758
aS'304366:44-304366:1387'
p759
aS'304366:1390-304366:1396'
p760
aS'304366:1399-304366:1402'
p761
aS'304366:1404-304366:1407'
p762
aS'304366:1409-304366:1412'
p763
aS'304366:1414-304366:1416'
p764
aS'304366:1419-304366:1421'
p765
aS'304366:1424-304366:1873'
p766
aS'304446:40-304446:92'
p767
aS'304446:110-304446:111'
p768
aS'304447:1-304447:534'
p769
aS'304447:540-304447:1644'
p770
aS'304451:1-304451:60'
p771
aS'304505:60-304505:86'
p772
aS'304506:1-304506:370'
p773
aS'304507:1-304507:239'
p774
aS'304508:1-304508:1324'
p775
aS'304562:52-304562:56'
p776
aS'304562:60-304562:848'
p777
aS'304616:52-304616:223'
p778
aS'304616:227-304616:740'
p779
aS'304616:747-304616:1002'
p780
aS'304625:73-304625:536'
p781
aS'304626:1-304626:8'
p782
aS'304654:53-304654:704'
p783
aS'304655:1-304655:1194'
p784
aS'304661:53-304661:67'
p785
aS'304661:69-304661:143'
p786
aS'304661:147-304661:173'
p787
aS'304661:175-304661:198'
p788
aS'304661:237-304661:240'
p789
aS'304662:1-304662:150'
p790
aS'304663:1-304663:689'
p791
aS'304671:51-304671:1193'
p792
aS'304672:1-304672:60'
p793
aS'304737:69-304737:149'
p794
aS'304738:1-304738:1681'
p795
aS'304739:3-304739:16'
p796
aS'304740:1-304740:278'
p797
aS'304776:49-304776:98'
p798
aS'304777:1-304777:431'
p799
aS'304777:438-304777:510'
p800
aS'304778:4-304778:1300'
p801
aS'304797:28-304797:87'
p802
aS'304797:91-304797:306'
p803
aS'304797:308-304797:377'
p804
aS'304797:385-304797:1202'
p805
aS'304797:1205-304797:2950'
p806
aS'305044:3-305044:203'
p807
aS'305044:302-305044:306'
p808
aS'305044:309-305044:310'
p809
aS'305044:313'
p810
aS'305044:318-305044:330'
p811
aS'305045:1-305045:873'
p812
aS'305046:1-305046:667'
p813
aS'305046:671-305046:686'
p814
aS'305059:63-305059:518'
p815
aS'305059:520-305059:575'
p816
aS'305062:1-305062:8'
p817
aS'305063:1-305063:35'
p818
aS'305064:1-305064:2045'
p819
aS'305081:52-305081:1107'
p820
aS'305112:68-305112:1527'
p821
aS'305113:9-305113:72'
p822
aS'305114:1-305114:526'
p823
aS'305178:69-305178:124'
p824
aS'305179:1-305179:21'
p825
aS'305180:1-305180:9'
p826
aS'305181:1-305181:8'
p827
aS'305182:1-305182:8'
p828
aS'305183:1-305183:231'
p829
aS'305183:262-305183:266'
p830
aS'305184:1-305184:8'
p831
aS'305186:1-305186:112'
p832
aS'305186:120-305186:422'
p833
aS'305188:1-305188:1002'
p834
aS'305202:74-305202:132'
p835
aS'305202:136-305202:729'
p836
aS'305204:1-305204:1229'
p837
aS'305207:52-305207:1077'
p838
aS'305208:1-305208:372'
p839
aS'305234:52-305234:99'
p840
aS'305236:1-305236:23'
p841
aS'305237:1-305237:16'
p842
aS'305237:18-305237:1147'
p843
aS'305247:57-305247:433'
p844
aS'305248:1-305248:957'
p845
aS'305252:1-305252:548'
p846
aS'305282:75-305282:207'
p847
aS'305310:60-305310:157'
p848
aS'305310:163-305310:458'
p849
aS'305311:1-305311:153'
p850
aS'305312:1-305312:227'
p851
aS'305313:1-305313:741'
p852
aS'305314:1-305314:404'
p853
aS'305336:36-305336:241'
p854
aS'305338:1-305338:107'
p855
aS'305341:1-305341:503'
p856
aS'305349:1-305349:34'
p857
aS'305350:1-305350:21'
p858
aS'305351:1-305351:868'
p859
aS'305358:91-305358:231'
p860
aS'305358:233-305358:253'
p861
aS'305364:50-305364:147'
p862
aS'305365:1-305365:668'
p863
aS'305365:676-305365:832'
p864
aS'305366:1-305366:721'
p865
aS'305366:724-305366:756'
p866
aS'305366:769-305366:934'
p867
aS'305366:936-305366:1254'
p868
aS'305376:71-305376:168'
p869
aS'305377:9-305377:1292'
p870
aS'305377:1294-305377:1383'
p871
aS'305377:1386-305377:1525'
p872
aS'305405:44-305405:536'
p873
aS'305405:573-305405:575'
p874
aS'305406:1-305406:394'
p875
aS'305406:401-305406:520'
p876
aS'305406:528-305406:535'
p877
aS'305406:540-305406:1475'
p878
aS'305440:20-305440:291'
p879
aS'305441:1-305441:121'
p880
aS'305516:46-305516:518'
p881
aS'305516:558-305516:639'
p882
aS'305517:1-305517:163'
p883
aS'305518:1-305518:1134'
p884
aS'305586:53-305586:583'
p885
aS'305589:1-305589:691'
p886
aS'305590:1-305590:500'
p887
aS'305590:517-305590:1020'
p888
aS'305636:60-305636:339'
p889
aS'305636:342-305636:667'
p890
aS'305636:671-305636:2390'
p891
aS'305766:55-305766:902'
p892
aS'305809:56-305809:197'
p893
aS'305814:85-305814:689'
p894
aS'305814:692-305814:978'
p895
aS'305814:980-305814:1074'
p896
aS'305814:1077-305814:1912'
p897
aS'305821:59-305821:830'
p898
aS'305832:87-305832:266'
p899
aS'305840:1-305840:1144'
p900
aS'305842:1-305842:862'
p901
aS'305862:81-305862:705'
p902
aS'305898:70-305898:780'
p903
aS'305902:53-305902:521'
p904
aS'305967:1-305967:32'
p905
aS'306029:63-306029:96'
p906
aS'306030:1-306030:110'
p907
aS'306036:60-306036:63'
p908
aS'306037:1-306037:49'
p909
aS'306038:1-306038:139'
p910
aS'306041:1-306041:320'
p911
aS'306042:1-306042:371'
p912
aS'306048:1-306048:140'
p913
aS'306049:1-306049:358'
p914
aS'306051:1-306051:415'
p915
aS'306091:422-306091:629'
p916
aS'306092:1-306092:588'
p917
aS'306092:593-306092:976'
p918
aS'306095:1-306095:300'
p919
aS'306121:57-306121:152'
p920
aS'306122:1-306122:127'
p921
aS'306125:1-306125:756'
p922
aS'306125:770-306125:2642'
p923
aS'306125:2667-306125:3007'
p924
aS'306126:1-306126:497'
p925
aS'306134:53-306134:84'
p926
aS'306135:1-306135:1095'
p927
aS'306138:1-306138:1298'
p928
aS'306139:1-306139:1112'
p929
aS'306153:78-306153:165'
p930
aS'306154:1-306154:251'
p931
aS'306154:253-306154:691'
p932
aS'306154:709-306154:1233'
p933
aS'306155:1-306155:1440'
p934
aS'306169:1-306169:745'
p935
aS'306170:1-306170:22'
p936
aS'306171:1-306171:503'
p937
aS'306418:1-306418:33'
p938
aS'306418:35-306418:75'
p939
aS'306419:1-306419:62'
p940
aS'306420:1-306420:108'
p941
aS'306422:9-306422:126'
p942
aS'306423:1-306423:333'
p943
aS'306432:1-306432:339'
p944
aS'306454:13-306454:101'
p945
aS'306455:1-306455:11'
p946
aS'306456:1-306456:237'
p947
aS'306456:239-306456:787'
p948
aS'306457:1-306457:31'
p949
aS'306458:1-306458:17'
p950
aS'306458:20-306458:35'
p951
aS'306458:37-306458:41'
p952
aS'306458:43-306458:47'
p953
aS'306458:49-306458:53'
p954
aS'306458:56-306458:60'
p955
aS'306458:62-306458:66'
p956
aS'306458:68-306458:72'
p957
aS'306458:74-306458:77'
p958
aS'306458:79-306458:83'
p959
aS'306458:85-306458:89'
p960
aS'306458:93-306458:102'
p961
aS'306458:104-306458:108'
p962
aS'306458:110-306458:114'
p963
aS'306458:116-306458:120'
p964
aS'306458:122-306458:126'
p965
aS'306458:129-306458:139'
p966
aS'306458:141-306458:145'
p967
aS'306458:147-306458:151'
p968
aS'306458:153-306458:166'
p969
aS'306458:169-306458:173'
p970
aS'306458:175-306458:179'
p971
aS'306458:181-306458:185'
p972
aS'306458:187-306458:191'
p973
aS'306458:193-306458:197'
p974
aS'306458:200-306458:210'
p975
aS'306458:212-306458:216'
p976
aS'306458:218-306458:222'
p977
aS'306458:225-306458:229'
p978
aS'306458:231-306458:235'
p979
aS'306458:237-306458:241'
p980
aS'306458:243-306458:247'
p981
aS'306458:249'
p982
aS'306458:252-306458:256'
p983
aS'306458:258-306458:268'
p984
aS'306459:1-306459:512'
p985
aS'306459:514-306459:2275'
p986
aS'306460:1-306460:73'
p987
atp988
Rp989
(dp990
g14
I00
sg32
I00
sg15
I00
sbsg35
S'PoolSource'
p991
sbsg38
g41
sS'hcalDDDSimConstants'
p992
g0
(g7
g2
Ntp993
Rp994
(dp995
g11
(lp996
S'appendToDataLabel'
p997
asg14
I00
sg997
g0
(g74
g2
Ntp998
Rp999
(dp1000
g14
I00
sg32
I01
sg64
g78
sg15
I00
sbsg15
I00
sg16
I56
sg17
g18
sg34
g992
sg35
S'HcalDDDSimConstantsESModule'
p1001
sbsS'source'
p1002
g160
sS'CaloTowerGeometryFromDBEP'
p1003
g0
(g7
g2
Ntp1004
Rp1005
(dp1006
g11
(lp1007
S'applyAlignment'
p1008
asg14
I00
sg15
I00
sg16
I56
sg17
g18
sg34
g1003
sg1008
g0
(g60
g2
Ntp1009
Rp1010
(dp1011
g14
I00
sg32
I01
sg64
I00
sg15
I00
sbsg35
g1003
sbsS'_Process__InExtendCall'
p1012
I00
sS'_Process__producers'
p1013
(dp1014
g73
g52
ssS'siPixelQualityESProducer'
p1015
g0
(g7
g2
Ntp1016
Rp1017
(dp1018
g11
(lp1019
S'siPixelQualityLabel'
p1020
aS'ListOfRecordToMerge'
p1021
asg14
I00
sg15
I01
sg16
I56
sg1020
g0
(g74
g2
Ntp1022
Rp1023
(dp1024
g14
I00
sg32
I01
sg64
g78
sg15
I00
sbsg17
g18
sg1021
g0
(cFWCore.ParameterSet.Types
VPSet
p1025
g20
(lp1026
g0
(cFWCore.ParameterSet.Types
PSet
p1027
g2
Ntp1028
Rp1029
(dp1030
g14
I00
sg32
I01
sg15
I00
sS'record'
p1031
g0
(g74
g2
Ntp1032
Rp1033
(dp1034
g14
I00
sg32
I01
sg64
S'SiPixelQualityFromDbRcd'
p1035
sg15
I00
sbsS'tag'
p1036
g0
(g74
g2
Ntp1037
Rp1038
(dp1039
g14
I00
sg32
I01
sg64
g78
sg15
I00
sbsg11
(lp1040
g1031
ag1036
asbag0
(g1027
g2
Ntp1041
Rp1042
(dp1043
g14
I00
sg32
I01
sg15
I00
sg1031
g0
(g74
g2
Ntp1044
Rp1045
(dp1046
g14
I00
sg32
I01
sg64
S'SiPixelDetVOffRcd'
p1047
sg15
I00
sbsg1036
g0
(g74
g2
Ntp1048
Rp1049
(dp1050
g14
I00
sg32
I01
sg64
g78
sg15
I00
sbsg11
(lp1051
g1031
ag1036
asbatp1052
Rp1053
(dp1054
g14
I00
sg32
I01
sg15
I00
sg33
I1
sbsg34
g1015
sg35
S'SiPixelQualityESProducer'
p1055
sbsS'GlobalTag'
p1056
g0
(cFWCore.ParameterSet.Modules
ESSource
p1057
g2
Ntp1058
Rp1059
(dp1060
g11
(lp1061
S'DBParameters'
p1062
aS'connect'
p1063
aS'globaltag'
p1064
aS'RefreshEachRun'
p1065
aS'pfnPrefix'
p1066
aS'snapshotTime'
p1067
aS'toGet'
p1068
aS'pfnPostfix'
p1069
aS'RefreshAlways'
p1070
aS'ReconnectEachRun'
p1071
aS'RefreshOpenIOVs'
p1072
aS'DumpStat'
p1073
asg14
I00
sg17
S'/cvmfs/cms.cern.ch/slc7_amd64_gcc700/cms/cmssw/CMSSW_10_6_12/python/CondCore/ESSources/CondDBESSource_cfi.py'
p1074
sg15
I01
sg1064
g0
(g74
g2
Ntp1075
Rp1076
(dp1077
g14
I00
sg32
I01
sg64
S'106X_dataRun2_v28'
p1078
sg15
I01
sbsg1065
g0
(g60
g2
Ntp1079
Rp1080
(dp1081
g14
I00
sg32
I00
sg64
I00
sg15
I00
sbsg1066
g0
(g74
g2
Ntp1082
Rp1083
(dp1084
g14
I00
sg32
I00
sg64
g78
sg15
I00
sbsg1067
g0
(g74
g2
Ntp1085
Rp1086
(dp1087
g14
I00
sg32
I01
sg64
g78
sg15
I00
sbsg1068
g0
(g1025
g20
(lp1088
tp1089
Rp1090
(dp1091
g14
I00
sg32
I01
sg15
I00
sg33
I1
sbsg1069
g0
(g74
g2
Ntp1092
Rp1093
(dp1094
g14
I00
sg32
I00
sg64
g78
sg15
I00
sbsg1062
g0
(g1027
g2
Ntp1095
Rp1096
(dp1097
g14
I00
sg32
I01
sS'authenticationPath'
p1098
g0
(g74
g2
Ntp1099
Rp1100
(dp1101
g14
I00
sg32
I00
sg64
g78
sg15
I00
sbsg15
I00
sS'messageLevel'
p1102
g0
(g66
g2
Ntp1103
Rp1104
(dp1105
g14
I00
sg32
I00
sg64
I0
sg15
I00
sbsg11
(lp1106
g1102
aS'security'
p1107
aS'authenticationSystem'
p1108
ag1098
asg1107
g0
(g74
g2
Ntp1109
Rp1110
(dp1111
g14
I00
sg32
I00
sg64
g78
sg15
I00
sbsg1108
g0
(g66
g2
Ntp1112
Rp1113
(dp1114
g14
I00
sg32
I00
sg64
I0
sg15
I00
sbsbsg1070
g0
(g60
g2
Ntp1115
Rp1116
(dp1117
g14
I00
sg32
I00
sg64
I00
sg15
I00
sbsg16
I19
sg1063
g0
(g74
g2
Ntp1118
Rp1119
(dp1120
g14
I00
sg32
I01
sg64
S'frontier://FrontierProd/CMS_CONDITIONS'
p1121
sg15
I00
sbsg1071
g0
(g60
g2
Ntp1122
Rp1123
(dp1124
g14
I00
sg32
I00
sg64
I00
sg15
I00
sbsg34
g1056
sg1072
g0
(g60
g2
Ntp1125
Rp1126
(dp1127
g14
I00
sg32
I00
sg64
I00
sg15
I00
sbsg1073
g0
(g60
g2
Ntp1128
Rp1129
(dp1130
g14
I00
sg32
I00
sg64
I00
sg15
I00
sbsg35
S'PoolDBESSource'
p1131
sbsS'TransientTrackBuilderESProducer'
p1132
g0
(g7
g2
Ntp1133
Rp1134
(dp1135
g11
(lp1136
S'ComponentName'
p1137
asg14
I00
sg15
I00
sg16
I56
sg17
g18
sg1137
g0
(g74
g2
Ntp1138
Rp1139
(dp1140
g14
I00
sg32
I01
sg64
S'TransientTrackBuilder'
p1141
sg15
I00
sbsg34
g1132
sg35
g1132
sbsS'_Process__endpaths'
p1142
g0
(cFWCore.ParameterSet.DictTypes
SortedKeysDict
p1143
c__builtin__
dict
p1144
(dp1145
tp1146
Rp1147
(dp1148
S'list'
p1149
(lp1150
sbsS'p'
p1151
g0
(cFWCore.ParameterSet.SequenceTypes
Path
p1152
g2
Ntp1153
Rp1154
(dp1155
g14
I00
sg43
g0
(g44
g2
Ntp1156
Rp1157
(dp1158
g48
(lp1159
g0
(g82
g2
Ntp1160
Rp1161
(dp1162
g11
(lp1163
S'outFile'
p1164
aS'isData'
p1165
asg14
I00
sg15
I00
sg1165
g0
(g60
g2
Ntp1166
Rp1167
(dp1168
g14
I00
sg32
I01
sg64
I01
sg15
I00
sbsg16
I190
sg17
S'/afs/cern.ch/work/m/mabarros/public/CMSSW_10_6_12/src/NanoAOD/NanoAnalyzer/nanoanalyzer_cfg.py'
p1169
sg1164
g0
(g74
g2
Ntp1170
Rp1171
(dp1172
g14
I00
sg32
I01
sg64
S'Data17DoubleMuonRunEAOD.root'
p1173
sg15
I00
sbsg34
S'nano'
p1174
sg35
S'NanoAnalyzer'
p1175
sbasbsg34
g1151
sg15
I00
sg135
g0
(g136
g2
Ntp1176
Rp1177
(dp1178
g140
(dp1179
sg142
(lp1180
Nag1180
ag1180
asbsbsS'MuonDetLayerGeometryESProducer'
p1181
g0
(g7
g2
Ntp1182
Rp1183
(dp1184
g11
(lp1185
sg14
I00
sg15
I00
sg16
I56
sg17
g18
sg34
g1181
sg35
g1181
sbsS'EcalEndcapGeometryFromDBEP'
p1186
g0
(g7
g2
Ntp1187
Rp1188
(dp1189
g11
(lp1190
g1008
asg14
I00
sg15
I01
sg16
I56
sg17
g18
sg34
g1186
sg1008
g0
(g60
g2
Ntp1191
Rp1192
(dp1193
g14
I00
sg32
I01
sg64
I01
sg15
I01
sbsg35
g1186
sbsg127
g84
sS'MessageLogger'
p1194
g0
(cFWCore.ParameterSet.Modules
Service
p1195
g2
Ntp1196
Rp1197
(dp1198
g14
I00
sS'suppressInfo'
p1199
g0
(g19
g20
(lp1200
tp1201
Rp1202
(dp1203
g14
I00
sg32
I00
sg15
I00
sg33
I1
sbsS'suppressDebug'
p1204
g0
(g19
g20
(lp1205
tp1206
Rp1207
(dp1208
g14
I00
sg32
I00
sg15
I00
sg33
I1
sbsS'cout'
p1209
g0
(g1027
g2
Ntp1210
Rp1211
(dp1212
g14
I00
sg32
I00
sS'placeholder'
p1213
g0
(g60
g2
Ntp1214
Rp1215
(dp1216
g14
I00
sg32
I00
sg64
I01
sg15
I00
sbsg15
I00
sg11
(lp1217
g1213
asbsg16
I14
sS'debugModules'
p1218
g0
(g19
g20
(lp1219
tp1220
Rp1221
(dp1222
g14
I00
sg32
I00
sg15
I00
sg33
I1
sbsg35
g1194
sS'fwkJobReports'
p1223
g0
(g19
g20
(lp1224
S'FrameworkJobReport'
p1225
atp1226
Rp1227
(dp1228
g14
I00
sg32
I00
sg15
I00
sg33
I1
sbsg11
(lp1229
g1199
aS'debugs'
p1230
ag1204
ag1209
aS'cerr_stats'
p1231
aS'warnings'
p1232
aS'default'
p1233
aS'statistics'
p1234
aS'cerr'
p1235
ag1225
aS'suppressWarning'
p1236
aS'errors'
p1237
aS'destinations'
p1238
ag1218
aS'infos'
p1239
aS'categories'
p1240
ag1223
asg1234
g0
(g19
g20
(lp1241
g1231
atp1242
Rp1243
(dp1244
g14
I00
sg32
I00
sg15
I00
sg33
I1
sbsg17
g18
sg1238
g0
(g19
g20
(lp1245
g1232
ag1237
ag1239
ag1230
ag1209
ag1235
atp1246
Rp1247
(dp1248
g14
I00
sg32
I00
sg15
I00
sg33
I1
sbsg1230
g0
(g1027
g2
Ntp1249
Rp1250
(dp1251
g14
I00
sg32
I00
sg1213
g0
(g60
g2
Ntp1252
Rp1253
(dp1254
g14
I00
sg32
I00
sg64
I01
sg15
I00
sbsg15
I00
sg11
(lp1255
g1213
asbsg1232
g0
(g1027
g2
Ntp1256
Rp1257
(dp1258
g14
I00
sg32
I00
sg1213
g0
(g60
g2
Ntp1259
Rp1260
(dp1261
g14
I00
sg32
I00
sg64
I01
sg15
I00
sbsg15
I00
sg11
(lp1262
g1213
asbsg1237
g0
(g1027
g2
Ntp1263
Rp1264
(dp1265
g14
I00
sg32
I00
sg1213
g0
(g60
g2
Ntp1266
Rp1267
(dp1268
g14
I00
sg32
I00
sg64
I01
sg15
I00
sbsg15
I00
sg11
(lp1269
g1213
asbsg1225
g0
(g1027
g2
Ntp1270
Rp1271
(dp1272
g14
I00
sg32
I00
sg15
I00
sg1233
g0
(g1027
g2
Ntp1273
Rp1274
(dp1275
g14
I00
sg32
I00
sS'limit'
p1276
g0
(g66
g2
Ntp1277
Rp1278
(dp1279
g14
I00
sg32
I00
sg64
I0
sg15
I00
sbsg15
I00
sg11
(lp1280
g1276
asbsS'FwkJob'
p1281
g0
(g1027
g2
Ntp1282
Rp1283
(dp1284
g14
I00
sg32
I00
sg15
I00
sg1276
g0
(g66
g2
Ntp1285
Rp1286
(dp1287
g14
I00
sg32
I00
sg64
I10000000
sg15
I00
sbsg11
(lp1288
S'optionalPSet'
p1289
ag1276
asg1289
g0
(g60
g2
Ntp1290
Rp1291
(dp1292
g14
I00
sg32
I00
sg64
I01
sg15
I00
sbsbsg11
(lp1293
g1233
ag1289
ag1281
asg1289
g0
(g60
g2
Ntp1294
Rp1295
(dp1296
g14
I00
sg32
I00
sg64
I01
sg15
I00
sbsbsg1236
g0
(g19
g20
(lp1297
tp1298
Rp1299
(dp1300
g14
I00
sg32
I00
sg15
I00
sg33
I1
sbsg1239
g0
(g1027
g2
Ntp1301
Rp1302
(dp1303
g14
I00
sg32
I00
sg15
I00
sS'Root_NoDictionary'
p1304
g0
(g1027
g2
Ntp1305
Rp1306
(dp1307
g14
I00
sg32
I00
sg15
I00
sg1276
g0
(g66
g2
Ntp1308
Rp1309
(dp1310
g14
I00
sg32
I00
sg64
I0
sg15
I00
sbsg11
(lp1311
g1289
ag1276
asg1289
g0
(g60
g2
Ntp1312
Rp1313
(dp1314
g14
I00
sg32
I00
sg64
I01
sg15
I00
sbsbsg11
(lp1315
g1289
ag1304
ag1213
asg1289
g0
(g60
g2
Ntp1316
Rp1317
(dp1318
g14
I00
sg32
I00
sg64
I01
sg15
I00
sbsg1213
g0
(g60
g2
Ntp1319
Rp1320
(dp1321
g14
I00
sg32
I00
sg64
I01
sg15
I00
sbsbsg1240
g0
(g19
g20
(lp1322
g1281
aS'FwkReport'
p1323
aS'FwkSummary'
p1324
ag1304
aS'Nano'
p1325
atp1326
Rp1327
(dp1328
g14
I00
sg32
I00
sg15
I00
sg33
I1
sbsg15
I00
sg1231
g0
(g1027
g2
Ntp1329
Rp1330
(dp1331
g14
I00
sg32
I00
sg15
I00
sg1289
g0
(g60
g2
Ntp1332
Rp1333
(dp1334
g14
I00
sg32
I00
sg64
I01
sg15
I00
sbsg11
(lp1335
S'threshold'
p1336
aS'output'
p1337
ag1289
asg1336
g0
(g74
g2
Ntp1338
Rp1339
(dp1340
g14
I00
sg32
I00
sg64
S'WARNING'
p1341
sg15
I00
sbsg1337
g0
(g74
g2
Ntp1342
Rp1343
(dp1344
g14
I00
sg32
I00
sg64
g1235
sg15
I00
sbsbsg1233
g0
(g1027
g2
Ntp1345
Rp1346
(dp1347
g14
I00
sg32
I00
sg15
I00
sg11
(lp1348
sbsS'_inProcess'
p1349
I00
sg1235
g0
(g1027
g2
Ntp1350
Rp1351
(dp1352
g14
I00
sg32
I00
sS'noTimeStamps'
p1353
g0
(g60
g2
Ntp1354
Rp1355
(dp1356
g14
I00
sg32
I00
sg64
I00
sg15
I00
sbsg1323
g0
(g1027
g2
Ntp1357
Rp1358
(dp1359
g14
I00
sg32
I00
sg15
I01
sS'reportEvery'
p1360
g0
(g66
g2
Ntp1361
Rp1362
(dp1363
g14
I00
sg32
I00
sg64
I10000
sg15
I01
sbsg1276
g0
(g66
g2
Ntp1364
Rp1365
(dp1366
g14
I00
sg32
I00
sg64
I10000000
sg15
I00
sbsg11
(lp1367
g1360
ag1289
ag1276
asg1289
g0
(g60
g2
Ntp1368
Rp1369
(dp1370
g14
I00
sg32
I00
sg64
I01
sg15
I00
sbsbsg15
I01
sg1233
g0
(g1027
g2
Ntp1371
Rp1372
(dp1373
g14
I00
sg32
I00
sg1276
g0
(g66
g2
Ntp1374
Rp1375
(dp1376
g14
I00
sg32
I00
sg64
I10000000
sg15
I00
sbsg15
I00
sg11
(lp1377
g1276
asbsg1304
g0
(g1027
g2
Ntp1378
Rp1379
(dp1380
g14
I00
sg32
I00
sg15
I00
sg1276
g0
(g66
g2
Ntp1381
Rp1382
(dp1383
g14
I00
sg32
I00
sg64
I0
sg15
I00
sbsg11
(lp1384
g1289
ag1276
asg1289
g0
(g60
g2
Ntp1385
Rp1386
(dp1387
g14
I00
sg32
I00
sg64
I01
sg15
I00
sbsbsS'INFO'
p1388
g0
(g1027
g2
Ntp1389
Rp1390
(dp1391
g14
I00
sg32
I00
sg1276
g0
(g66
g2
Ntp1392
Rp1393
(dp1394
g14
I00
sg32
I00
sg64
I0
sg15
I00
sbsg15
I00
sg11
(lp1395
g1276
asbsg1289
g0
(g60
g2
Ntp1396
Rp1397
(dp1398
g14
I00
sg32
I00
sg64
I01
sg15
I00
sbsg1281
g0
(g1027
g2
Ntp1399
Rp1400
(dp1401
g14
I00
sg32
I00
sg15
I00
sg1276
g0
(g66
g2
Ntp1402
Rp1403
(dp1404
g14
I00
sg32
I00
sg64
I0
sg15
I00
sbsg11
(lp1405
g1289
ag1276
asg1289
g0
(g60
g2
Ntp1406
Rp1407
(dp1408
g14
I00
sg32
I00
sg64
I01
sg15
I00
sbsbsg1324
g0
(g1027
g2
Ntp1409
Rp1410
(dp1411
g14
I00
sg32
I00
sg15
I00
sg1360
g0
(g66
g2
Ntp1412
Rp1413
(dp1414
g14
I00
sg32
I00
sg64
I1
sg15
I00
sbsg1276
g0
(g66
g2
Ntp1415
Rp1416
(dp1417
g14
I00
sg32
I00
sg64
I10000000
sg15
I00
sbsg11
(lp1418
g1360
ag1289
ag1276
asg1289
g0
(g60
g2
Ntp1419
Rp1420
(dp1421
g14
I00
sg32
I00
sg64
I01
sg15
I00
sbsbsg11
(lp1422
g1388
ag1353
ag1323
ag1233
ag1304
ag1336
ag1281
ag1324
ag1289
asg1336
g0
(g74
g2
Ntp1423
Rp1424
(dp1425
g14
I00
sg32
I00
sg64
g1388
sg15
I00
sbsbsbsS'_Process__services'
p1426
(dp1427
g1194
g1197
sS'DQMStore'
p1428
g0
(g1195
g2
Ntp1429
Rp1430
(dp1431
g11
(lp1432
sg14
I00
sg1349
I01
sg15
I00
sg16
I14
sg17
g18
sg35
g1428
sbssg1428
g1430
sS'HcalTimeSlewEP'
p1433
g0
(g1057
g2
Ntp1434
Rp1435
(dp1436
g11
(lp1437
S'timeSlewParametersM3'
p1438
aS'timeSlewParametersM2'
p1439
ag997
asg14
I00
sg1438
g0
(g1025
g20
(lp1440
g0
(g1027
g2
Ntp1441
Rp1442
(dp1443
g14
I00
sg32
I01
sS'tspar2'
p1444
g0
(g97
g2
Ntp1445
Rp1446
(dp1447
g14
I00
sg32
I01
sg64
F0.0
sg15
I00
sbsg15
I00
sS'tspar0'
p1448
g0
(g97
g2
Ntp1449
Rp1450
(dp1451
g14
I00
sg32
I01
sg64
F12.2999
sg15
I00
sbsS'tspar1'
p1452
g0
(g97
g2
Ntp1453
Rp1454
(dp1455
g14
I00
sg32
I01
sg64
F-2.19142
sg15
I00
sbsS'tspar1_siPM'
p1456
g0
(g97
g2
Ntp1457
Rp1458
(dp1459
g14
I00
sg32
I01
sg64
F0.0
sg15
I00
sbsS'cap'
p1460
g0
(g97
g2
Ntp1461
Rp1462
(dp1463
g14
I00
sg32
I01
sg64
F6.0
sg15
I00
sbsS'tspar0_siPM'
p1464
g0
(g97
g2
Ntp1465
Rp1466
(dp1467
g14
I00
sg32
I01
sg64
F0.0
sg15
I00
sbsg11
(lp1468
g1444
ag1448
ag1452
ag1456
ag1460
ag1464
aS'tspar2_siPM'
p1469
asg1469
g0
(g97
g2
Ntp1470
Rp1471
(dp1472
g14
I00
sg32
I01
sg64
F0.0
sg15
I00
sbsbag0
(g1027
g2
Ntp1473
Rp1474
(dp1475
g14
I00
sg32
I01
sg1444
g0
(g97
g2
Ntp1476
Rp1477
(dp1478
g14
I00
sg32
I01
sg64
F32.0
sg15
I00
sbsg15
I00
sg1448
g0
(g97
g2
Ntp1479
Rp1480
(dp1481
g14
I00
sg32
I01
sg64
F15.5
sg15
I00
sbsg1452
g0
(g97
g2
Ntp1482
Rp1483
(dp1484
g14
I00
sg32
I01
sg64
F-3.2
sg15
I00
sbsg1456
g0
(g97
g2
Ntp1485
Rp1486
(dp1487
g14
I00
sg32
I01
sg64
F0.0
sg15
I00
sbsg1460
g0
(g97
g2
Ntp1488
Rp1489
(dp1490
g14
I00
sg32
I01
sg64
F6.0
sg15
I00
sbsg1464
g0
(g97
g2
Ntp1491
Rp1492
(dp1493
g14
I00
sg32
I01
sg64
F0.0
sg15
I00
sbsg11
(lp1494
g1444
ag1448
ag1452
ag1456
ag1460
ag1464
ag1469
asg1469
g0
(g97
g2
Ntp1495
Rp1496
(dp1497
g14
I00
sg32
I01
sg64
F0.0
sg15
I00
sbsbag0
(g1027
g2
Ntp1498
Rp1499
(dp1500
g14
I00
sg32
I01
sg1444
g0
(g97
g2
Ntp1501
Rp1502
(dp1503
g14
I00
sg32
I01
sg64
F0.0
sg15
I00
sbsg15
I00
sg1448
g0
(g97
g2
Ntp1504
Rp1505
(dp1506
g14
I00
sg32
I01
sg64
F12.2999
sg15
I00
sbsg1452
g0
(g97
g2
Ntp1507
Rp1508
(dp1509
g14
I00
sg32
I01
sg64
F-2.19142
sg15
I00
sbsg1456
g0
(g97
g2
Ntp1510
Rp1511
(dp1512
g14
I00
sg32
I01
sg64
F0.0
sg15
I00
sbsg1460
g0
(g97
g2
Ntp1513
Rp1514
(dp1515
g14
I00
sg32
I01
sg64
F6.0
sg15
I00
sbsg1464
g0
(g97
g2
Ntp1516
Rp1517
(dp1518
g14
I00
sg32
I01
sg64
F0.0
sg15
I00
sbsg11
(lp1519
g1444
ag1448
ag1452
ag1456
ag1460
ag1464
ag1469
asg1469
g0
(g97
g2
Ntp1520
Rp1521
(dp1522
g14
I00
sg32
I01
sg64
F0.0
sg15
I00
sbsbag0
(g1027
g2
Ntp1523
Rp1524
(dp1525
g14
I00
sg32
I01
sg1444
g0
(g97
g2
Ntp1526
Rp1527
(dp1528
g14
I00
sg32
I01
sg64
F0.0
sg15
I00
sbsg15
I00
sg1448
g0
(g97
g2
Ntp1529
Rp1530
(dp1531
g14
I00
sg32
I01
sg64
F12.2999
sg15
I00
sbsg1452
g0
(g97
g2
Ntp1532
Rp1533
(dp1534
g14
I00
sg32
I01
sg64
F-2.19142
sg15
I00
sbsg1456
g0
(g97
g2
Ntp1535
Rp1536
(dp1537
g14
I00
sg32
I01
sg64
F0.0
sg15
I00
sbsg1460
g0
(g97
g2
Ntp1538
Rp1539
(dp1540
g14
I00
sg32
I01
sg64
F6.0
sg15
I00
sbsg1464
g0
(g97
g2
Ntp1541
Rp1542
(dp1543
g14
I00
sg32
I01
sg64
F0.0
sg15
I00
sbsg11
(lp1544
g1444
ag1448
ag1452
ag1456
ag1460
ag1464
ag1469
asg1469
g0
(g97
g2
Ntp1545
Rp1546
(dp1547
g14
I00
sg32
I01
sg64
F0.0
sg15
I00
sbsbatp1548
Rp1549
(dp1550
g14
I00
sg32
I01
sg15
I00
sg33
I1
sbsg1439
g0
(g1025
g20
(lp1551
g0
(g1027
g2
Ntp1552
Rp1553
(dp1554
g14
I00
sg32
I01
sg15
I00
sS'slope'
p1555
g0
(g97
g2
Ntp1556
Rp1557
(dp1558
g14
I00
sg32
I01
sg64
F-3.178648
sg15
I00
sbsS'tmax'
p1559
g0
(g97
g2
Ntp1560
Rp1561
(dp1562
g14
I00
sg32
I01
sg64
F16.0
sg15
I00
sbsS'tzero'
p1563
g0
(g97
g2
Ntp1564
Rp1565
(dp1566
g14
I00
sg32
I01
sg64
F23.960177
sg15
I00
sbsg11
(lp1567
g1555
ag1559
ag1563
asbag0
(g1027
g2
Ntp1568
Rp1569
(dp1570
g14
I00
sg32
I01
sg15
I00
sg1555
g0
(g97
g2
Ntp1571
Rp1572
(dp1573
g14
I00
sg32
I01
sg64
F-1.5610227
sg15
I00
sbsg1559
g0
(g97
g2
Ntp1574
Rp1575
(dp1576
g14
I00
sg32
I01
sg64
F10.0
sg15
I00
sbsg1563
g0
(g97
g2
Ntp1577
Rp1578
(dp1579
g14
I00
sg32
I01
sg64
F11.977461
sg15
I00
sbsg11
(lp1580
g1555
ag1559
ag1563
asbag0
(g1027
g2
Ntp1581
Rp1582
(dp1583
g14
I00
sg32
I01
sg15
I00
sg1555
g0
(g97
g2
Ntp1584
Rp1585
(dp1586
g14
I00
sg32
I01
sg64
F-1.075824
sg15
I00
sbsg1559
g0
(g97
g2
Ntp1587
Rp1588
(dp1589
g14
I00
sg32
I01
sg64
F6.25
sg15
I00
sbsg1563
g0
(g97
g2
Ntp1590
Rp1591
(dp1592
g14
I00
sg32
I01
sg64
F9.109694
sg15
I00
sbsg11
(lp1593
g1555
ag1559
ag1563
asbatp1594
Rp1595
(dp1596
g14
I00
sg32
I01
sg15
I00
sg33
I1
sbsg15
I00
sg16
I23
sg17
S'/cvmfs/cms.cern.ch/slc7_amd64_gcc700/cms/cmssw/CMSSW_10_6_12/python/CalibCalorimetry/HcalPlugins/HcalTimeSlew_cff.py'
p1597
sg997
g0
(g74
g2
Ntp1598
Rp1599
(dp1600
g14
I00
sg32
I01
sg64
S'HBHE'
p1601
sg15
I00
sbsg34
g1433
sg35
g1433
sbsS'CastorGeometryFromDBEP'
p1602
g0
(g7
g2
Ntp1603
Rp1604
(dp1605
g11
(lp1606
g1008
asg14
I00
sg15
I00
sg16
I56
sg17
g18
sg34
g1602
sg1008
g0
(g60
g2
Ntp1607
Rp1608
(dp1609
g14
I00
sg32
I01
sg64
I00
sg15
I00
sbsg35
g1602
sbsS'HFRecalParameterBlock'
p1610
g0
(g1027
g2
Ntp1611
Rp1612
(dp1613
g14
I00
sg32
I01
sg15
I00
sS'HFdepthTwoParameterA'
p1614
g0
(cFWCore.ParameterSet.Types
vdouble
p1615
g20
(lp1616
F0.002861
aF0.004168
aF0.0064
aF0.008388
aF0.011601
aF0.014425
aF0.018633
aF0.023232
aF0.028274
aF0.035447
aF0.051579
aF0.086593
atp1617
Rp1618
(dp1619
g14
I00
sg32
I01
sg15
I00
sbsS'HFdepthOneParameterA'
p1620
g0
(g1615
g20
(lp1621
F0.004123
aF0.00602
aF0.008201
aF0.010489
aF0.013379
aF0.016997
aF0.021464
aF0.027371
aF0.034195
aF0.044807
aF0.058939
aF0.125497
atp1622
Rp1623
(dp1624
g14
I00
sg32
I01
sg15
I00
sbsS'HFdepthOneParameterB'
p1625
g0
(g1615
g20
(lp1626
F-4e-06
aF-2e-06
aF0.0
aF4e-06
aF1.5e-05
aF2.6e-05
aF6.3e-05
aF8.4e-05
aF0.00016
aF0.000107
aF0.000425
aF0.000209
atp1627
Rp1628
(dp1629
g14
I00
sg32
I01
sg15
I00
sbsS'HFdepthTwoParameterB'
p1630
g0
(g1615
g20
(lp1631
F-2e-06
aF-0.0
aF-7e-06
aF-6e-06
aF-2e-06
aF1e-06
aF1.9e-05
aF3.1e-05
aF6.7e-05
aF1.2e-05
aF0.000157
aF-3e-06
atp1632
Rp1633
(dp1634
g14
I00
sg32
I01
sg15
I00
sbsg11
(lp1635
g1620
ag1625
ag1630
ag1614
asg34
g1610
sbsg144
g146
sS'eegeom'
p1636
g0
(g1057
g2
Ntp1637
Rp1638
(dp1639
g11
(lp1640
S'iovIsRunNotTime'
p1641
aS'recordName'
p1642
aS'firstValid'
p1643
asg14
I00
sg15
I00
sg16
I6
sg1642
g0
(g74
g2
Ntp1644
Rp1645
(dp1646
g14
I00
sg32
I01
sg64
S'EcalMappingRcd'
p1647
sg15
I00
sbsg17
S'/cvmfs/cms.cern.ch/slc7_amd64_gcc700/cms/cmssw/CMSSW_10_6_12/python/Geometry/EcalMapping/EcalMappingRecord_cfi.py'
p1648
sg1643
g0
(cFWCore.ParameterSet.Types
vuint32
p1649
g20
(lp1650
I1
atp1651
Rp1652
(dp1653
g14
I00
sg32
I01
sg15
I00
sbsg34
g1636
sg1641
g0
(g60
g2
Ntp1654
Rp1655
(dp1656
g14
I00
sg32
I01
sg64
I01
sg15
I00
sbsg35
S'EmptyESSource'
p1657
sbsg1174
g1161
sS'hcalTopologyIdeal'
p1658
g0
(g7
g2
Ntp1659
Rp1660
(dp1661
g11
(lp1662
S'MergePosition'
p1663
aS'Exclude'
p1664
ag997
asg14
I00
sg997
g0
(g74
g2
Ntp1665
Rp1666
(dp1667
g14
I00
sg32
I01
sg64
g78
sg15
I00
sbsg15
I00
sg16
I56
sg1663
g0
(g60
g2
Ntp1668
Rp1669
(dp1670
g14
I00
sg32
I00
sg64
I00
sg15
I00
sbsg17
g18
sg34
g1658
sg1664
g0
(g74
g2
Ntp1671
Rp1672
(dp1673
g14
I00
sg32
I00
sg64
g78
sg15
I00
sbsg35
S'HcalTopologyIdealEP'
p1674
sbsS'_Process__vpsets'
p1675
(dp1676
sS'EcalTrigTowerConstituentsMapBuilder'
p1677
g0
(g7
g2
Ntp1678
Rp1679
(dp1680
g11
(lp1681
S'MapFile'
p1682
asg14
I00
sg15
I00
sg1682
g0
(g74
g2
Ntp1683
Rp1684
(dp1685
g14
I00
sg32
I00
sg64
S'Geometry/EcalMapping/data/EndCap_TTMap.txt'
p1686
sg15
I00
sbsg17
g18
sg16
I56
sg34
g1677
sg35
g1677
sbsS'siStripBackPlaneCorrectionDepESProducer'
p1687
g0
(g7
g2
Ntp1688
Rp1689
(dp1690
g11
(lp1691
S'LatencyRecord'
p1692
aS'BackPlaneCorrectionDeconvMode'
p1693
aS'BackPlaneCorrectionPeakMode'
p1694
asg14
I00
sg15
I00
sg16
I56
sg17
g18
sg1692
g0
(g1027
g2
Ntp1695
Rp1696
(dp1697
g14
I00
sg32
I01
sg15
I00
sS'label'
p1698
g0
(g74
g2
Ntp1699
Rp1700
(dp1701
g14
I00
sg32
I00
sg64
g78
sg15
I00
sbsg1031
g0
(g74
g2
Ntp1702
Rp1703
(dp1704
g14
I00
sg32
I01
sg64
S'SiStripLatencyRcd'
p1705
sg15
I00
sbsg11
(lp1706
g1031
ag1698
asbsg1694
g0
(g1027
g2
Ntp1707
Rp1708
(dp1709
g14
I00
sg32
I01
sg15
I00
sg1698
g0
(g74
g2
Ntp1710
Rp1711
(dp1712
g14
I00
sg32
I00
sg64
S'peak'
p1713
sg15
I00
sbsg1031
g0
(g74
g2
Ntp1714
Rp1715
(dp1716
g14
I00
sg32
I01
sg64
S'SiStripBackPlaneCorrectionRcd'
p1717
sg15
I00
sbsg11
(lp1718
g1031
ag1698
asbsg34
g1687
sg1693
g0
(g1027
g2
Ntp1719
Rp1720
(dp1721
g14
I00
sg32
I01
sg15
I00
sg1698
g0
(g74
g2
Ntp1722
Rp1723
(dp1724
g14
I00
sg32
I00
sg64
S'deconvolution'
p1725
sg15
I00
sbsg1031
g0
(g74
g2
Ntp1726
Rp1727
(dp1728
g14
I00
sg32
I01
sg64
g1717
sg15
I00
sbsg11
(lp1729
g1031
ag1698
asbsg35
S'SiStripBackPlaneCorrectionDepESProducer'
p1730
sbsS'_Process__switchproducers'
p1731
(dp1732
sS'_Process__esprefers'
p1733
(dp1734
S'es_prefer_hcalHardcode'
p1735
g0
(cFWCore.ParameterSet.Modules
ESPrefer
p1736
g2
Ntp1737
Rp1738
(dp1739
g11
(lp1740
sg14
I00
sg15
I00
sS'_targetLabel'
p1741
S'es_hardcode'
p1742
sg16
I92
sg17
g18
sg34
g1735
sg35
S'HcalHardcodeCalibrations'
p1743
sbssS'_Process__isStrict'
p1744
I00
sS'_Process__outputmodules'
p1745
(dp1746
sS'_Process__analyzers'
p1747
(dp1748
g127
g84
sg1174
g1161
ssS'idealForDigiTrackerGeometry'
p1749
g0
(g7
g2
Ntp1750
Rp1751
(dp1752
g11
(lp1753
g997
aS'fromDDD'
p1754
ag1008
aS'alignmentsLabel'
p1755
asg14
I00
sg997
g0
(g74
g2
Ntp1756
Rp1757
(dp1758
g14
I00
sg32
I01
sg64
S'idealForDigi'
p1759
sg15
I01
sbsg15
I01
sg1755
g0
(g74
g2
Ntp1760
Rp1761
(dp1762
g14
I00
sg32
I01
sg64
S'fakeForIdeal'
p1763
sg15
I01
sbsg17
S'/cvmfs/cms.cern.ch/slc7_amd64_gcc700/cms/cmssw/CMSSW_10_6_12/python/Geometry/TrackerGeometryBuilder/idealForDigiTrackerGeometryDB_cff.py'
p1764
sg16
I8
sg34
g1749
sg1754
g0
(g60
g2
Ntp1765
Rp1766
(dp1767
g14
I00
sg32
I01
sg64
I00
sg15
I00
sbsg1008
g0
(g60
g2
Ntp1768
Rp1769
(dp1770
g14
I00
sg32
I01
sg64
I00
sg15
I01
sbsg35
S'TrackerDigiGeometryESModule'
p1771
sbsS'_Process__looper'
p1772
NsS'_Process__tasks'
p1773
(dp1774
sS'_Process__paths'
p1775
g0
(g1143
g1144
(dp1776
g1151
g1154
stp1777
Rp1778
(dp1779
g1149
(lp1780
g1151
asbsS'options'
p1781
g0
(g1027
g2
Ntp1782
Rp1783
(dp1784
g14
I00
sg32
I00
sg15
I00
sS'wantSummary'
p1785
g0
(g60
g2
Ntp1786
Rp1787
(dp1788
g14
I00
sg32
I00
sg64
I01
sg15
I00
sbsg11
(lp1789
g1785
asg34
g1781
sbsS'DTGeometryESModule'
p1790
g0
(g7
g2
Ntp1791
Rp1792
(dp1793
g11
(lp1794
g997
ag1754
ag1008
ag1755
asg14
I00
sg997
g0
(g74
g2
Ntp1795
Rp1796
(dp1797
g14
I00
sg32
I01
sg64
g78
sg15
I00
sbsg15
I00
sg1755
g0
(g74
g2
Ntp1798
Rp1799
(dp1800
g14
I00
sg32
I01
sg64
g78
sg15
I00
sbsg17
g18
sg16
I56
sg34
g1790
sg1754
g0
(g60
g2
Ntp1801
Rp1802
(dp1803
g14
I00
sg32
I01
sg64
I00
sg15
I00
sbsg1008
g0
(g60
g2
Ntp1804
Rp1805
(dp1806
g14
I00
sg32
I01
sg64
I01
sg15
I00
sbsg35
g1790
sbsS'VolumeBasedMagneticFieldESProducer'
p1807
g0
(g7
g2
Ntp1808
Rp1809
(dp1810
g11
(lp1811
S'valueOverride'
p1812
aS'debugBuilder'
p1813
ag1698
asg14
I00
sg1812
g0
(g66
g2
Ntp1814
Rp1815
(dp1816
g14
I00
sg32
I01
sg64
I-1
sg15
I00
sbsg16
I56
sg17
g18
sg1698
g0
(g74
g2
Ntp1817
Rp1818
(dp1819
g14
I00
sg32
I00
sg64
g78
sg15
I00
sbsg1813
g0
(g60
g2
Ntp1820
Rp1821
(dp1822
g14
I00
sg32
I00
sg64
I00
sg15
I00
sbsg34
g1807
sg35
S'VolumeBasedMagneticFieldESProducerFromDB'
p1823
sg15
I00
sbsS'CaloTopologyBuilder'
p1824
g0
(g7
g2
Ntp1825
Rp1826
(dp1827
g11
(lp1828
sg14
I00
sg15
I00
sg16
I56
sg17
g18
sg34
g1824
sg35
g1824
sbsS'SiStripRecHitMatcherESProducer'
p1829
g0
(g7
g2
Ntp1830
Rp1831
(dp1832
g11
(lp1833
S'PreFilter'
p1834
ag1137
aS'NSigmaInside'
p1835
asg14
I00
sg15
I00
sg17
g18
sg1137
g0
(g74
g2
Ntp1836
Rp1837
(dp1838
g14
I00
sg32
I01
sg64
S'StandardMatcher'
p1839
sg15
I00
sbsg1834
g0
(g60
g2
Ntp1840
Rp1841
(dp1842
g14
I00
sg32
I01
sg64
I00
sg15
I00
sbsg16
I56
sg1835
g0
(g97
g2
Ntp1843
Rp1844
(dp1845
g14
I00
sg32
I01
sg64
F3.0
sg15
I00
sbsg34
g1829
sg35
g1829
sbsS'_Process__psets'
p1846
(dp1847
S'maxEvents'
p1848
g0
(g1027
g2
Ntp1849
Rp1850
(dp1851
g14
I00
sg32
I00
sg15
I00
sg11
(lp1852
S'input'
p1853
asg34
g1848
sg1853
g0
(g66
g2
Ntp1854
Rp1855
(dp1856
g14
I00
sg32
I00
sg64
I100
sg15
I00
sbsbsg1610
g1612
sg1781
g1783
ssS'_Process__essources'
p1857
(dp1858
g1636
g1638
sg1742
g0
(g1057
g2
Ntp1859
Rp1860
(dp1861
g14
I00
sg16
I172
sS'useHEUpgrade'
p1862
g0
(g60
g2
Ntp1863
Rp1864
(dp1865
g14
I00
sg32
I01
sg64
I00
sg15
I00
sbsS'HBRecalibration'
p1866
g0
(g60
g2
Ntp1867
Rp1868
(dp1869
g14
I00
sg32
I01
sg64
I00
sg15
I00
sbsS'useLayer0Weight'
p1870
g0
(g60
g2
Ntp1871
Rp1872
(dp1873
g14
I00
sg32
I01
sg64
I00
sg15
I00
sbsS'HEmeanenergies'
p1874
g0
(cFWCore.ParameterSet.Types
FileInPath
p1875
g2
Ntp1876
Rp1877
(dp1878
g14
I00
sg32
I01
sg64
S'CalibCalorimetry/HcalPlugins/data/meanenergiesHE.txt'
p1879
sg15
I00
sbsg1610
g1612
sS'heUpgrade'
p1880
g0
(g1027
g2
Ntp1881
Rp1882
(dp1883
g14
I00
sg32
I01
sS'qieType'
p1884
g0
(g66
g2
Ntp1885
Rp1886
(dp1887
g14
I00
sg32
I01
sg64
I2
sg15
I00
sbsg15
I00
sS'pedestalWidth'
p1888
g0
(g97
g2
Ntp1889
Rp1890
(dp1891
g14
I00
sg32
I01
sg64
F1.5
sg15
I00
sbsS'recoShape'
p1892
g0
(g66
g2
Ntp1893
Rp1894
(dp1895
g14
I00
sg32
I01
sg64
I206
sg15
I00
sbsS'zsThreshold'
p1896
g0
(g66
g2
Ntp1897
Rp1898
(dp1899
g14
I00
sg32
I01
sg64
I16
sg15
I00
sbsS'darkCurrent'
p1900
g0
(g1615
g20
(lp1901
F0.01
aF0.015
atp1902
Rp1903
(dp1904
g14
I00
sg32
I01
sg15
I00
sbsS'qieOffset'
p1905
g0
(g1615
g20
(lp1906
F0.0
aF0.0
aF0.0
aF0.0
atp1907
Rp1908
(dp1909
g14
I00
sg32
I01
sg15
I00
sbsS'qieSlope'
p1910
g0
(g1615
g20
(lp1911
F0.05376
aF0.05376
aF0.05376
aF0.05376
atp1912
Rp1913
(dp1914
g14
I00
sg32
I01
sg15
I00
sbsS'radiationDamage'
p1915
g0
(g1027
g2
Ntp1916
Rp1917
(dp1918
g14
I00
sg32
I01
sS'temperatureNew'
p1919
g0
(g97
g2
Ntp1920
Rp1921
(dp1922
g14
I00
sg32
I01
sg64
I5
sg15
I00
sbsg15
I00
sS'depVsNeutrons'
p1923
g0
(g1615
g20
(lp1924
F5.543e-10
aF8.012e-10
atp1925
Rp1926
(dp1927
g14
I00
sg32
I01
sg15
I00
sbsS'temperatureBase'
p1928
g0
(g97
g2
Ntp1929
Rp1930
(dp1931
g14
I00
sg32
I01
sg64
I20
sg15
I00
sbsS'depVsTemp'
p1932
g0
(g97
g2
Ntp1933
Rp1934
(dp1935
g14
I00
sg32
I01
sg64
F0.0631
sg15
I00
sbsS'intlumiOffset'
p1936
g0
(g97
g2
Ntp1937
Rp1938
(dp1939
g14
I00
sg32
I01
sg64
I75
sg15
I00
sbsg11
(lp1940
g1919
ag1923
ag1928
ag1932
ag1936
aS'intlumiToNeutrons'
p1941
asg1941
g0
(g97
g2
Ntp1942
Rp1943
(dp1944
g14
I00
sg32
I01
sg64
F29200000.0
sg15
I00
sbsbsS'doRadiationDamage'
p1945
g0
(g60
g2
Ntp1946
Rp1947
(dp1948
g14
I00
sg32
I01
sg64
I01
sg15
I00
sbsg11
(lp1949
g1884
ag1888
ag1892
ag1896
aS'photoelectronsToAnalog'
p1950
ag1905
ag1910
ag1915
ag1945
ag1900
aS'pedestal'
p1951
aS'mcShape'
p1952
aS'gainWidth'
p1953
aS'gain'
p1954
asg1950
g0
(g97
g2
Ntp1955
Rp1956
(dp1957
g14
I00
sg32
I01
sg64
F40.0
sg15
I00
sbsg1951
g0
(g97
g2
Ntp1958
Rp1959
(dp1960
g14
I00
sg32
I01
sg64
F17.3
sg15
I00
sbsg1952
g0
(g66
g2
Ntp1961
Rp1962
(dp1963
g14
I00
sg32
I01
sg64
I206
sg15
I00
sbsg1953
g0
(g1615
g20
(lp1964
I0
atp1965
Rp1966
(dp1967
g14
I00
sg32
I01
sg15
I00
sbsg1954
g0
(g1615
g20
(lp1968
F0.0006252
atp1969
Rp1970
(dp1971
g14
I00
sg32
I01
sg15
I00
sbsbsg11
(lp1972
g1068
ag1866
ag1870
ag1874
ag1610
ag1880
aS'useIeta18depth1'
p1973
aS'killHE'
p1974
aS'useHBUpgrade'
p1975
aS'hbUpgrade'
p1976
aS'testHEPlan1'
p1977
aS'iLumi'
p1978
aS'testHFQIE10'
p1979
aS'HBmeanenergies'
p1980
ag1862
aS'GainWidthsForTrigPrims'
p1981
aS'HBreCalibCutoff'
p1982
aS'HFRecalibration'
p1983
aS'ho'
p1984
aS'hb'
p1985
aS'hf'
p1986
aS'he'
p1987
aS'HERecalibration'
p1988
aS'useHFUpgrade'
p1989
aS'HEreCalibCutoff'
p1990
aS'SiPMCharacteristics'
p1991
aS'useHOUpgrade'
p1992
aS'hfUpgrade'
p1993
asg17
S'/cvmfs/cms.cern.ch/slc7_amd64_gcc700/cms/cmssw/CMSSW_10_6_12/python/CalibCalorimetry/HcalPlugins/Hcal_Conditions_forGlobalTag_cff.py'
p1994
sg1973
g0
(g60
g2
Ntp1995
Rp1996
(dp1997
g14
I00
sg32
I01
sg64
I01
sg15
I00
sbsg1974
g0
(g60
g2
Ntp1998
Rp1999
(dp2000
g14
I00
sg32
I01
sg64
I00
sg15
I00
sbsg1975
g0
(g60
g2
Ntp2001
Rp2002
(dp2003
g14
I00
sg32
I01
sg64
I00
sg15
I00
sbsg1976
g0
(g1027
g2
Ntp2004
Rp2005
(dp2006
g14
I00
sg32
I01
sg1884
g0
(g66
g2
Ntp2007
Rp2008
(dp2009
g14
I00
sg32
I01
sg64
I2
sg15
I00
sbsg15
I00
sg1888
g0
(g97
g2
Ntp2010
Rp2011
(dp2012
g14
I00
sg32
I01
sg64
F1.5
sg15
I00
sbsg1892
g0
(g66
g2
Ntp2013
Rp2014
(dp2015
g14
I00
sg32
I01
sg64
I206
sg15
I00
sbsg1896
g0
(g66
g2
Ntp2016
Rp2017
(dp2018
g14
I00
sg32
I01
sg64
I16
sg15
I00
sbsg1900
g0
(g1615
g20
(lp2019
F0.01
aF0.015
atp2020
Rp2021
(dp2022
g14
I00
sg32
I01
sg15
I00
sbsg1905
g0
(g1615
g20
(lp2023
F0.0
aF0.0
aF0.0
aF0.0
atp2024
Rp2025
(dp2026
g14
I00
sg32
I01
sg15
I00
sbsg1910
g0
(g1615
g20
(lp2027
F0.05376
aF0.05376
aF0.05376
aF0.05376
atp2028
Rp2029
(dp2030
g14
I00
sg32
I01
sg15
I00
sbsg1915
g0
(g1027
g2
Ntp2031
Rp2032
(dp2033
g14
I00
sg32
I01
sg1919
g0
(g97
g2
Ntp2034
Rp2035
(dp2036
g14
I00
sg32
I01
sg64
I-5
sg15
I00
sbsg15
I00
sg1923
g0
(g1615
g20
(lp2037
F5.543e-10
aF8.012e-10
atp2038
Rp2039
(dp2040
g14
I00
sg32
I01
sg15
I00
sbsg1928
g0
(g97
g2
Ntp2041
Rp2042
(dp2043
g14
I00
sg32
I01
sg64
I20
sg15
I00
sbsg1932
g0
(g97
g2
Ntp2044
Rp2045
(dp2046
g14
I00
sg32
I01
sg64
F0.0631
sg15
I00
sbsg1936
g0
(g97
g2
Ntp2047
Rp2048
(dp2049
g14
I00
sg32
I01
sg64
I150
sg15
I00
sbsg11
(lp2050
g1919
ag1923
ag1928
ag1932
ag1936
ag1941
asg1941
g0
(g97
g2
Ntp2051
Rp2052
(dp2053
g14
I00
sg32
I01
sg64
F367000000.0
sg15
I00
sbsbsg1945
g0
(g60
g2
Ntp2054
Rp2055
(dp2056
g14
I00
sg32
I01
sg64
I01
sg15
I00
sbsg11
(lp2057
g1884
ag1888
ag1892
ag1896
ag1950
ag1905
ag1910
ag1915
ag1945
ag1900
ag1951
ag1952
ag1953
ag1954
asg1950
g0
(g97
g2
Ntp2058
Rp2059
(dp2060
g14
I00
sg32
I01
sg64
F40.0
sg15
I00
sbsg1951
g0
(g97
g2
Ntp2061
Rp2062
(dp2063
g14
I00
sg32
I01
sg64
F17.3
sg15
I00
sbsg1952
g0
(g66
g2
Ntp2064
Rp2065
(dp2066
g14
I00
sg32
I01
sg64
I206
sg15
I00
sbsg1953
g0
(g1615
g20
(lp2067
I0
atp2068
Rp2069
(dp2070
g14
I00
sg32
I01
sg15
I00
sbsg1954
g0
(g1615
g20
(lp2071
F0.0006252
atp2072
Rp2073
(dp2074
g14
I00
sg32
I01
sg15
I00
sbsbsg35
g1743
sg1977
g0
(g60
g2
Ntp2075
Rp2076
(dp2077
g14
I00
sg32
I01
sg64
I00
sg15
I00
sbsg1978
g0
(g97
g2
Ntp2078
Rp2079
(dp2080
g14
I00
sg32
I01
sg64
F-1.0
sg15
I00
sbsg1979
g0
(g60
g2
Ntp2081
Rp2082
(dp2083
g14
I00
sg32
I01
sg64
I00
sg15
I00
sbsg1980
g0
(g1875
g2
Ntp2084
Rp2085
(dp2086
g14
I00
sg32
I01
sg64
S'CalibCalorimetry/HcalPlugins/data/meanenergiesHB.txt'
p2087
sg15
I00
sbsg1068
g0
(g19
g20
(lp2088
S'GainWidths'
p2089
atp2090
Rp2091
(dp2092
g14
I00
sg32
I00
sg15
I00
sg33
I1
sbsg1981
g0
(g60
g2
Ntp2093
Rp2094
(dp2095
g14
I00
sg32
I01
sg64
I00
sg15
I00
sbsg1982
g0
(g97
g2
Ntp2096
Rp2097
(dp2098
g14
I00
sg32
I01
sg64
F20.0
sg15
I00
sbsg1983
g0
(g60
g2
Ntp2099
Rp2100
(dp2101
g14
I00
sg32
I01
sg64
I00
sg15
I00
sbsg1984
g0
(g1027
g2
Ntp2102
Rp2103
(dp2104
g14
I00
sg32
I01
sg1884
g0
(g66
g2
Ntp2105
Rp2106
(dp2107
g14
I00
sg32
I01
sg64
I0
sg15
I00
sbsg15
I00
sg1888
g0
(g97
g2
Ntp2108
Rp2109
(dp2110
g14
I00
sg32
I01
sg64
F0.6285
sg15
I00
sbsg1892
g0
(g66
g2
Ntp2111
Rp2112
(dp2113
g14
I00
sg32
I01
sg64
I201
sg15
I00
sbsg1896
g0
(g66
g2
Ntp2114
Rp2115
(dp2116
g14
I00
sg32
I01
sg64
I24
sg15
I00
sbsg1900
g0
(g1615
g20
(lp2117
F0.0
atp2118
Rp2119
(dp2120
g14
I00
sg32
I01
sg15
I00
sbsg1905
g0
(g1615
g20
(lp2121
F-0.44
aF1.4
aF7.1
aF38.5
atp2122
Rp2123
(dp2124
g14
I00
sg32
I01
sg15
I00
sbsg1910
g0
(g1615
g20
(lp2125
F0.907
aF0.915
aF0.92
aF0.921
atp2126
Rp2127
(dp2128
g14
I00
sg32
I01
sg15
I00
sbsg1954
g0
(g1615
g20
(lp2129
F0.006
aF0.0087
atp2130
Rp2131
(dp2132
g14
I00
sg32
I01
sg15
I00
sbsg1945
g0
(g60
g2
Ntp2133
Rp2134
(dp2135
g14
I00
sg32
I01
sg64
I00
sg15
I00
sbsg11
(lp2136
g1884
ag1888
ag1892
ag1896
ag1950
ag1905
ag1910
ag1954
ag1945
ag1900
ag1951
ag1952
ag1953
asg1950
g0
(g97
g2
Ntp2137
Rp2138
(dp2139
g14
I00
sg32
I01
sg64
F4.0
sg15
I00
sbsg1951
g0
(g97
g2
Ntp2140
Rp2141
(dp2142
g14
I00
sg32
I01
sg64
F12.06
sg15
I00
sbsg1952
g0
(g66
g2
Ntp2143
Rp2144
(dp2145
g14
I00
sg32
I01
sg64
I201
sg15
I00
sbsg1953
g0
(g1615
g20
(lp2146
F0.0
aF0.0
atp2147
Rp2148
(dp2149
g14
I00
sg32
I01
sg15
I00
sbsbsg1985
g0
(g1027
g2
Ntp2150
Rp2151
(dp2152
g14
I00
sg32
I01
sg1884
g0
(g66
g2
Ntp2153
Rp2154
(dp2155
g14
I00
sg32
I01
sg64
I0
sg15
I00
sbsg15
I00
sg1888
g0
(g97
g2
Ntp2156
Rp2157
(dp2158
g14
I00
sg32
I01
sg64
F0.809
sg15
I00
sbsg1892
g0
(g66
g2
Ntp2159
Rp2160
(dp2161
g14
I00
sg32
I01
sg64
I105
sg15
I00
sbsg1896
g0
(g66
g2
Ntp2162
Rp2163
(dp2164
g14
I00
sg32
I01
sg64
I8
sg15
I00
sbsg1900
g0
(g1615
g20
(lp2165
F0.0
atp2166
Rp2167
(dp2168
g14
I00
sg32
I01
sg15
I00
sbsg1905
g0
(g1615
g20
(lp2169
F-0.49
aF1.8
aF7.2
aF37.9
atp2170
Rp2171
(dp2172
g14
I00
sg32
I01
sg15
I00
sbsg1910
g0
(g1615
g20
(lp2173
F0.912
aF0.917
aF0.922
aF0.923
atp2174
Rp2175
(dp2176
g14
I00
sg32
I01
sg15
I00
sbsg1954
g0
(g1615
g20
(lp2177
F0.19
atp2178
Rp2179
(dp2180
g14
I00
sg32
I01
sg15
I00
sbsg1945
g0
(g60
g2
Ntp2181
Rp2182
(dp2183
g14
I00
sg32
I01
sg64
I00
sg15
I00
sbsg11
(lp2184
g1884
ag1888
ag1892
ag1896
ag1950
ag1905
ag1910
ag1954
ag1945
ag1900
ag1951
ag1952
ag1953
asg1950
g0
(g97
g2
Ntp2185
Rp2186
(dp2187
g14
I00
sg32
I01
sg64
F0.3305
sg15
I00
sbsg1951
g0
(g97
g2
Ntp2188
Rp2189
(dp2190
g14
I00
sg32
I01
sg64
F3.285
sg15
I00
sbsg1952
g0
(g66
g2
Ntp2191
Rp2192
(dp2193
g14
I00
sg32
I01
sg64
I125
sg15
I00
sbsg1953
g0
(g1615
g20
(lp2194
F0.0
atp2195
Rp2196
(dp2197
g14
I00
sg32
I01
sg15
I00
sbsbsg1986
g0
(g1027
g2
Ntp2198
Rp2199
(dp2200
g14
I00
sg32
I01
sg1884
g0
(g66
g2
Ntp2201
Rp2202
(dp2203
g14
I00
sg32
I01
sg64
I0
sg15
I00
sbsg15
I00
sg1888
g0
(g97
g2
Ntp2204
Rp2205
(dp2206
g14
I00
sg32
I01
sg64
F2.516
sg15
I00
sbsg1892
g0
(g66
g2
Ntp2207
Rp2208
(dp2209
g14
I00
sg32
I01
sg64
I301
sg15
I00
sbsg1896
g0
(g66
g2
Ntp2210
Rp2211
(dp2212
g14
I00
sg32
I01
sg64
I-9999
sg15
I00
sbsg1900
g0
(g1615
g20
(lp2213
F0.0
atp2214
Rp2215
(dp2216
g14
I00
sg32
I01
sg15
I00
sbsg1905
g0
(g1615
g20
(lp2217
F-0.87
aF1.4
aF7.8
aF-29.6
atp2218
Rp2219
(dp2220
g14
I00
sg32
I01
sg15
I00
sbsg1910
g0
(g1615
g20
(lp2221
F0.359
aF0.358
aF0.36
aF0.367
atp2222
Rp2223
(dp2224
g14
I00
sg32
I01
sg15
I00
sbsg1954
g0
(g1615
g20
(lp2225
F0.14
aF0.135
atp2226
Rp2227
(dp2228
g14
I00
sg32
I01
sg15
I00
sbsg1945
g0
(g60
g2
Ntp2229
Rp2230
(dp2231
g14
I00
sg32
I01
sg64
I00
sg15
I00
sbsg11
(lp2232
g1884
ag1888
ag1892
ag1896
ag1950
ag1905
ag1910
ag1954
ag1945
ag1900
ag1951
ag1952
ag1953
asg1950
g0
(g97
g2
Ntp2233
Rp2234
(dp2235
g14
I00
sg32
I01
sg64
F0.0
sg15
I00
sbsg1951
g0
(g97
g2
Ntp2236
Rp2237
(dp2238
g14
I00
sg32
I01
sg64
F9.354
sg15
I00
sbsg1952
g0
(g66
g2
Ntp2239
Rp2240
(dp2241
g14
I00
sg32
I01
sg64
I301
sg15
I00
sbsg1953
g0
(g1615
g20
(lp2242
F0.0
aF0.0
atp2243
Rp2244
(dp2245
g14
I00
sg32
I01
sg15
I00
sbsbsg1987
g0
(g1027
g2
Ntp2246
Rp2247
(dp2248
g14
I00
sg32
I01
sg1884
g0
(g66
g2
Ntp2249
Rp2250
(dp2251
g14
I00
sg32
I01
sg64
I0
sg15
I00
sbsg15
I00
sg1888
g0
(g97
g2
Ntp2252
Rp2253
(dp2254
g14
I00
sg32
I01
sg64
F0.9698
sg15
I00
sbsg1892
g0
(g66
g2
Ntp2255
Rp2256
(dp2257
g14
I00
sg32
I01
sg64
I105
sg15
I00
sbsg1896
g0
(g66
g2
Ntp2258
Rp2259
(dp2260
g14
I00
sg32
I01
sg64
I9
sg15
I00
sbsg1900
g0
(g1615
g20
(lp2261
F0.0
atp2262
Rp2263
(dp2264
g14
I00
sg32
I01
sg15
I00
sbsg1905
g0
(g1615
g20
(lp2265
F-0.38
aF2.0
aF7.6
aF39.6
atp2266
Rp2267
(dp2268
g14
I00
sg32
I01
sg15
I00
sbsg1910
g0
(g1615
g20
(lp2269
F0.912
aF0.916
aF0.92
aF0.922
atp2270
Rp2271
(dp2272
g14
I00
sg32
I01
sg15
I00
sbsg1954
g0
(g1615
g20
(lp2273
F0.23
atp2274
Rp2275
(dp2276
g14
I00
sg32
I01
sg15
I00
sbsg1945
g0
(g60
g2
Ntp2277
Rp2278
(dp2279
g14
I00
sg32
I01
sg64
I00
sg15
I00
sbsg11
(lp2280
g1884
ag1888
ag1892
ag1896
ag1950
ag1905
ag1910
ag1954
ag1945
ag1900
ag1951
ag1952
ag1953
asg1950
g0
(g97
g2
Ntp2281
Rp2282
(dp2283
g14
I00
sg32
I01
sg64
F0.3305
sg15
I00
sbsg1951
g0
(g97
g2
Ntp2284
Rp2285
(dp2286
g14
I00
sg32
I01
sg64
F3.163
sg15
I00
sbsg1952
g0
(g66
g2
Ntp2287
Rp2288
(dp2289
g14
I00
sg32
I01
sg64
I125
sg15
I00
sbsg1953
g0
(g1615
g20
(lp2290
I0
atp2291
Rp2292
(dp2293
g14
I00
sg32
I01
sg15
I00
sbsbsg15
I00
sg1988
g0
(g60
g2
Ntp2294
Rp2295
(dp2296
g14
I00
sg32
I01
sg64
I00
sg15
I00
sbsg1989
g0
(g60
g2
Ntp2297
Rp2298
(dp2299
g14
I00
sg32
I01
sg64
I00
sg15
I00
sbsg1990
g0
(g97
g2
Ntp2300
Rp2301
(dp2302
g14
I00
sg32
I01
sg64
F20.0
sg15
I00
sbsg1991
g0
(g1025
g20
(lp2303
g0
(g1027
g2
Ntp2304
Rp2305
(dp2306
g14
I00
sg32
I01
sg15
I00
sS'crosstalk'
p2307
g0
(g97
g2
Ntp2308
Rp2309
(dp2310
g14
I00
sg32
I01
sg64
F0.0
sg15
I00
sbsS'nonlin1'
p2311
g0
(g97
g2
Ntp2312
Rp2313
(dp2314
g14
I00
sg32
I01
sg64
F1.0
sg15
I00
sbsS'nonlin3'
p2315
g0
(g97
g2
Ntp2316
Rp2317
(dp2318
g14
I00
sg32
I01
sg64
F0.0
sg15
I00
sbsS'nonlin2'
p2319
g0
(g97
g2
Ntp2320
Rp2321
(dp2322
g14
I00
sg32
I01
sg64
F0.0
sg15
I00
sbsg11
(lp2323
g2311
ag2315
ag2319
aS'pixels'
p2324
ag2307
asg2324
g0
(g66
g2
Ntp2325
Rp2326
(dp2327
g14
I00
sg32
I01
sg64
I36000
sg15
I00
sbsbag0
(g1027
g2
Ntp2328
Rp2329
(dp2330
g14
I00
sg32
I01
sg15
I00
sg2307
g0
(g97
g2
Ntp2331
Rp2332
(dp2333
g14
I00
sg32
I01
sg64
F0.0
sg15
I00
sbsg2311
g0
(g97
g2
Ntp2334
Rp2335
(dp2336
g14
I00
sg32
I01
sg64
F1.0
sg15
I00
sbsg2315
g0
(g97
g2
Ntp2337
Rp2338
(dp2339
g14
I00
sg32
I01
sg64
F0.0
sg15
I00
sbsg2319
g0
(g97
g2
Ntp2340
Rp2341
(dp2342
g14
I00
sg32
I01
sg64
F0.0
sg15
I00
sbsg11
(lp2343
g2311
ag2315
ag2319
ag2324
ag2307
asg2324
g0
(g66
g2
Ntp2344
Rp2345
(dp2346
g14
I00
sg32
I01
sg64
I2500
sg15
I00
sbsbag0
(g1027
g2
Ntp2347
Rp2348
(dp2349
g14
I00
sg32
I01
sg15
I00
sg2307
g0
(g97
g2
Ntp2350
Rp2351
(dp2352
g14
I00
sg32
I01
sg64
F0.17
sg15
I00
sbsg2311
g0
(g97
g2
Ntp2353
Rp2354
(dp2355
g14
I00
sg32
I01
sg64
F1.00985
sg15
I00
sbsg2315
g0
(g97
g2
Ntp2356
Rp2357
(dp2358
g14
I00
sg32
I01
sg64
F2.86282e-10
sg15
I00
sbsg2319
g0
(g97
g2
Ntp2359
Rp2360
(dp2361
g14
I00
sg32
I01
sg64
F7.84089e-06
sg15
I00
sbsg11
(lp2362
g2311
ag2315
ag2319
ag2324
ag2307
asg2324
g0
(g66
g2
Ntp2363
Rp2364
(dp2365
g14
I00
sg32
I01
sg64
I27370
sg15
I00
sbsbag0
(g1027
g2
Ntp2366
Rp2367
(dp2368
g14
I00
sg32
I01
sg15
I00
sg2307
g0
(g97
g2
Ntp2369
Rp2370
(dp2371
g14
I00
sg32
I01
sg64
F0.196
sg15
I00
sbsg2311
g0
(g97
g2
Ntp2372
Rp2373
(dp2374
g14
I00
sg32
I01
sg64
F1.00546
sg15
I00
sbsg2315
g0
(g97
g2
Ntp2375
Rp2376
(dp2377
g14
I00
sg32
I01
sg64
F1.27011e-10
sg15
I00
sbsg2319
g0
(g97
g2
Ntp2378
Rp2379
(dp2380
g14
I00
sg32
I01
sg64
F6.40239e-06
sg15
I00
sbsg11
(lp2381
g2311
ag2315
ag2319
ag2324
ag2307
asg2324
g0
(g66
g2
Ntp2382
Rp2383
(dp2384
g14
I00
sg32
I01
sg64
I38018
sg15
I00
sbsbag0
(g1027
g2
Ntp2385
Rp2386
(dp2387
g14
I00
sg32
I01
sg15
I00
sg2307
g0
(g97
g2
Ntp2388
Rp2389
(dp2390
g14
I00
sg32
I01
sg64
F0.17
sg15
I00
sbsg2311
g0
(g97
g2
Ntp2391
Rp2392
(dp2393
g14
I00
sg32
I01
sg64
F1.00985
sg15
I00
sbsg2315
g0
(g97
g2
Ntp2394
Rp2395
(dp2396
g14
I00
sg32
I01
sg64
F2.86282e-10
sg15
I00
sbsg2319
g0
(g97
g2
Ntp2397
Rp2398
(dp2399
g14
I00
sg32
I01
sg64
F7.84089e-06
sg15
I00
sbsg11
(lp2400
g2311
ag2315
ag2319
ag2324
ag2307
asg2324
g0
(g66
g2
Ntp2401
Rp2402
(dp2403
g14
I00
sg32
I01
sg64
I27370
sg15
I00
sbsbag0
(g1027
g2
Ntp2404
Rp2405
(dp2406
g14
I00
sg32
I01
sg15
I00
sg2307
g0
(g97
g2
Ntp2407
Rp2408
(dp2409
g14
I00
sg32
I01
sg64
F0.196
sg15
I00
sbsg2311
g0
(g97
g2
Ntp2410
Rp2411
(dp2412
g14
I00
sg32
I01
sg64
F1.00546
sg15
I00
sbsg2315
g0
(g97
g2
Ntp2413
Rp2414
(dp2415
g14
I00
sg32
I01
sg64
F1.27011e-10
sg15
I00
sbsg2319
g0
(g97
g2
Ntp2416
Rp2417
(dp2418
g14
I00
sg32
I01
sg64
F6.40239e-06
sg15
I00
sbsg11
(lp2419
g2311
ag2315
ag2319
ag2324
ag2307
asg2324
g0
(g66
g2
Ntp2420
Rp2421
(dp2422
g14
I00
sg32
I01
sg64
I38018
sg15
I00
sbsbag0
(g1027
g2
Ntp2423
Rp2424
(dp2425
g14
I00
sg32
I01
sg15
I00
sg2307
g0
(g97
g2
Ntp2426
Rp2427
(dp2428
g14
I00
sg32
I01
sg64
F0.0
sg15
I00
sbsg2311
g0
(g97
g2
Ntp2429
Rp2430
(dp2431
g14
I00
sg32
I01
sg64
F1.0
sg15
I00
sbsg2315
g0
(g97
g2
Ntp2432
Rp2433
(dp2434
g14
I00
sg32
I01
sg64
F0.0
sg15
I00
sbsg2319
g0
(g97
g2
Ntp2435
Rp2436
(dp2437
g14
I00
sg32
I01
sg64
F0.0
sg15
I00
sbsg11
(lp2438
g2311
ag2315
ag2319
ag2324
ag2307
asg2324
g0
(g66
g2
Ntp2439
Rp2440
(dp2441
g14
I00
sg32
I01
sg64
I0
sg15
I00
sbsbatp2442
Rp2443
(dp2444
g14
I00
sg32
I01
sg15
I00
sg33
I1
sbsg34
g1742
sg1992
g0
(g60
g2
Ntp2445
Rp2446
(dp2447
g14
I00
sg32
I01
sg64
I01
sg15
I00
sbsg1993
g0
(g1027
g2
Ntp2448
Rp2449
(dp2450
g14
I00
sg32
I01
sg1884
g0
(g66
g2
Ntp2451
Rp2452
(dp2453
g14
I00
sg32
I01
sg64
I1
sg15
I00
sbsg15
I00
sg1888
g0
(g97
g2
Ntp2454
Rp2455
(dp2456
g14
I00
sg32
I01
sg64
F3.33
sg15
I00
sbsg1892
g0
(g66
g2
Ntp2457
Rp2458
(dp2459
g14
I00
sg32
I01
sg64
I301
sg15
I00
sbsg1896
g0
(g66
g2
Ntp2460
Rp2461
(dp2462
g14
I00
sg32
I01
sg64
I-9999
sg15
I00
sbsg1900
g0
(g1615
g20
(lp2463
F0.0
atp2464
Rp2465
(dp2466
g14
I00
sg32
I01
sg15
I00
sbsg1905
g0
(g1615
g20
(lp2467
F0.0697
aF-0.7405
aF12.38
aF-671.9
atp2468
Rp2469
(dp2470
g14
I00
sg32
I01
sg15
I00
sbsg1910
g0
(g1615
g20
(lp2471
F0.297
aF0.298
aF0.298
aF0.313
atp2472
Rp2473
(dp2474
g14
I00
sg32
I01
sg15
I00
sbsg1954
g0
(g1615
g20
(lp2475
F0.14
aF0.135
atp2476
Rp2477
(dp2478
g14
I00
sg32
I01
sg15
I00
sbsg1945
g0
(g60
g2
Ntp2479
Rp2480
(dp2481
g14
I00
sg32
I01
sg64
I00
sg15
I00
sbsg11
(lp2482
g1884
ag1888
ag1892
ag1896
ag1950
ag1905
ag1910
ag1954
ag1945
ag1900
ag1951
ag1952
ag1953
asg1950
g0
(g97
g2
Ntp2483
Rp2484
(dp2485
g14
I00
sg32
I01
sg64
F0.0
sg15
I00
sbsg1951
g0
(g97
g2
Ntp2486
Rp2487
(dp2488
g14
I00
sg32
I01
sg64
F13.33
sg15
I00
sbsg1952
g0
(g66
g2
Ntp2489
Rp2490
(dp2491
g14
I00
sg32
I01
sg64
I301
sg15
I00
sbsg1953
g0
(g1615
g20
(lp2492
F0.0
aF0.0
atp2493
Rp2494
(dp2495
g14
I00
sg32
I01
sg15
I00
sbsbsbsg1056
g1059
sg1433
g1435
ssg991
g160
sg1848
g1850
sS'CSCGeometryESModule'
p2496
g0
(g7
g2
Ntp2497
Rp2498
(dp2499
g11
(lp2500
g997
aS'useDDD'
p2501
aS'debugV'
p2502
aS'useGangedStripsInME1a'
p2503
ag1755
aS'useOnlyWiresInME1a'
p2504
aS'useRealWireGeometry'
p2505
aS'useCentreTIOffsets'
p2506
ag1008
asg14
I00
sg997
g0
(g74
g2
Ntp2507
Rp2508
(dp2509
g14
I00
sg32
I01
sg64
g78
sg15
I00
sbsg15
I00
sg2502
g0
(g60
g2
Ntp2510
Rp2511
(dp2512
g14
I00
sg32
I00
sg64
I00
sg15
I00
sbsg17
g18
sg2503
g0
(g60
g2
Ntp2513
Rp2514
(dp2515
g14
I00
sg32
I01
sg64
I01
sg15
I00
sbsg1755
g0
(g74
g2
Ntp2516
Rp2517
(dp2518
g14
I00
sg32
I01
sg64
g78
sg15
I00
sbsg2504
g0
(g60
g2
Ntp2519
Rp2520
(dp2521
g14
I00
sg32
I01
sg64
I00
sg15
I00
sbsg2501
g0
(g60
g2
Ntp2522
Rp2523
(dp2524
g14
I00
sg32
I01
sg64
I00
sg15
I00
sbsg16
I56
sg2506
g0
(g60
g2
Ntp2525
Rp2526
(dp2527
g14
I00
sg32
I01
sg64
I00
sg15
I00
sbsg34
g2496
sg2505
g0
(g60
g2
Ntp2528
Rp2529
(dp2530
g14
I00
sg32
I01
sg64
I01
sg15
I00
sbsg1008
g0
(g60
g2
Ntp2531
Rp2532
(dp2533
g14
I00
sg32
I01
sg64
I01
sg15
I00
sbsg35
g2496
sbsS'EcalBarrelGeometryFromDBEP'
p2534
g0
(g7
g2
Ntp2535
Rp2536
(dp2537
g11
(lp2538
g1008
asg14
I00
sg15
I01
sg16
I56
sg17
g18
sg34
g2534
sg1008
g0
(g60
g2
Ntp2539
Rp2540
(dp2541
g14
I00
sg32
I01
sg64
I01
sg15
I01
sbsg35
g2534
sbsS'trackerNumberingGeometryDB'
p2542
g0
(g7
g2
Ntp2543
Rp2544
(dp2545
g11
(lp2546
g997
ag1754
asg14
I00
sg997
g0
(g74
g2
Ntp2547
Rp2548
(dp2549
g14
I00
sg32
I01
sg64
g78
sg15
I00
sbsg15
I00
sg16
I56
sg17
g18
sg34
g2542
sg1754
g0
(g60
g2
Ntp2550
Rp2551
(dp2552
g14
I00
sg32
I01
sg64
I00
sg15
I00
sbsg35
S'TrackerGeometricDetESModule'
p2553
sbsS'_Process__name'
p2554
g1325
sg1742
g1860
sS'_cloneToObjectDict'
p2555
(dp2556
I139940949914448
g1660
sI139940949884112
g1188
sI139940950172624
g0
(g7
g2
Ntp2557
Rp2558
(dp2559
g11
(lp2560
sg14
I00
sg15
I00
sg16
I56
sg17
g18
sg34
S'EcalLaserCorrectionService'
p2561
sg35
g2561
sbsI139940949959696
g0
(g7
g2
Ntp2562
Rp2563
(dp2564
g11
(lp2565
g997
ag2501
ag2502
ag2503
ag1755
ag2504
ag2505
ag2506
ag1008
asg14
I00
sg997
g0
(g74
g2
Ntp2566
Rp2567
(dp2568
g14
I00
sg32
I01
sg64
g1759
sg15
I01
sbsg15
I01
sg2502
g0
(g60
g2
Ntp2569
Rp2570
(dp2571
g14
I00
sg32
I00
sg64
I00
sg15
I00
sbsg17
S'/cvmfs/cms.cern.ch/slc7_amd64_gcc700/cms/cmssw/CMSSW_10_6_12/python/Geometry/CSCGeometryBuilder/idealForDigiCscGeometryDB_cff.py'
p2572
sg2503
g0
(g60
g2
Ntp2573
Rp2574
(dp2575
g14
I00
sg32
I01
sg64
I01
sg15
I00
sbsg1755
g0
(g74
g2
Ntp2576
Rp2577
(dp2578
g14
I00
sg32
I01
sg64
g1763
sg15
I01
sbsg2504
g0
(g60
g2
Ntp2579
Rp2580
(dp2581
g14
I00
sg32
I01
sg64
I00
sg15
I00
sbsg2501
g0
(g60
g2
Ntp2582
Rp2583
(dp2584
g14
I00
sg32
I01
sg64
I00
sg15
I00
sbsg16
I8
sg2506
g0
(g60
g2
Ntp2585
Rp2586
(dp2587
g14
I00
sg32
I01
sg64
I00
sg15
I00
sbsg34
S'idealForDigiCSCGeometry'
p2588
sg2505
g0
(g60
g2
Ntp2589
Rp2590
(dp2591
g14
I00
sg32
I01
sg64
I01
sg15
I00
sbsg1008
g0
(g60
g2
Ntp2592
Rp2593
(dp2594
g14
I00
sg32
I01
sg64
I00
sg15
I01
sbsg35
g2496
sbsI139940949656656
g1161
sI139940949804176
g0
(g7
g2
Ntp2595
Rp2596
(dp2597
g11
(lp2598
g1692
aS'LorentzAngleDeconvMode'
p2599
aS'LorentzAnglePeakMode'
p2600
asg14
I00
sg15
I00
sg16
I56
sg17
g18
sg1692
g0
(g1027
g2
Ntp2601
Rp2602
(dp2603
g14
I00
sg32
I01
sg15
I00
sg1698
g0
(g74
g2
Ntp2604
Rp2605
(dp2606
g14
I00
sg32
I00
sg64
g78
sg15
I00
sbsg1031
g0
(g74
g2
Ntp2607
Rp2608
(dp2609
g14
I00
sg32
I01
sg64
g1705
sg15
I00
sbsg11
(lp2610
g1031
ag1698
asbsg34
S'siStripLorentzAngleDepESProducer'
p2611
sg2600
g0
(g1027
g2
Ntp2612
Rp2613
(dp2614
g14
I00
sg32
I01
sg15
I00
sg1698
g0
(g74
g2
Ntp2615
Rp2616
(dp2617
g14
I00
sg32
I00
sg64
g1713
sg15
I00
sbsg1031
g0
(g74
g2
Ntp2618
Rp2619
(dp2620
g14
I00
sg32
I01
sg64
S'SiStripLorentzAngleRcd'
p2621
sg15
I00
sbsg11
(lp2622
g1031
ag1698
asbsg35
S'SiStripLorentzAngleDepESProducer'
p2623
sg2599
g0
(g1027
g2
Ntp2624
Rp2625
(dp2626
g14
I00
sg32
I01
sg15
I00
sg1698
g0
(g74
g2
Ntp2627
Rp2628
(dp2629
g14
I00
sg32
I00
sg64
g1725
sg15
I00
sbsg1031
g0
(g74
g2
Ntp2630
Rp2631
(dp2632
g14
I00
sg32
I01
sg64
g2621
sg15
I00
sbsg11
(lp2633
g1031
ag1698
asbsbsI139940949882704
g0
(g7
g2
Ntp2634
Rp2635
(dp2636
g11
(lp2637
g997
asg14
I00
sg997
g0
(g74
g2
Ntp2638
Rp2639
(dp2640
g14
I00
sg32
I01
sg64
g78
sg15
I00
sbsg15
I00
sg16
I56
sg17
g18
sg34
S'trackerTopology'
p2641
sg35
S'TrackerTopologyEP'
p2642
sbsI139940949914832
g0
(g7
g2
Ntp2643
Rp2644
(dp2645
g11
(lp2646
sg14
I00
sg15
I00
sg16
I56
sg17
g18
sg34
S'CaloTowerTopologyEP'
p2647
sg35
g2647
sbsI139940949657104
g1154
sI139940950190992
g1435
sI139940949882320
g0
(g7
g2
Ntp2648
Rp2649
(dp2650
g11
(lp2651
g997
ag1754
ag1008
ag1755
asg14
I00
sg997
g0
(g74
g2
Ntp2652
Rp2653
(dp2654
g14
I00
sg32
I01
sg64
g78
sg15
I00
sbsg15
I00
sg1755
g0
(g74
g2
Ntp2655
Rp2656
(dp2657
g14
I00
sg32
I01
sg64
g78
sg15
I00
sbsg17
g18
sg16
I56
sg34
S'trackerGeometryDB'
p2658
sg1754
g0
(g60
g2
Ntp2659
Rp2660
(dp2661
g14
I00
sg32
I01
sg64
I00
sg15
I00
sbsg1008
g0
(g60
g2
Ntp2662
Rp2663
(dp2664
g14
I00
sg32
I01
sg64
I01
sg15
I00
sbsg35
g1771
sbsI139940949853712
g0
(g7
g2
Ntp2665
Rp2666
(dp2667
g11
(lp2668
g997
aS'PrintDebugOutput'
p2669
aS'ThresholdForReducedGranularity'
p2670
aS'UseEmptyRunInfo'
p2671
aS'ReduceGranularity'
p2672
ag1021
asg14
I00
sg997
g0
(g74
g2
Ntp2673
Rp2674
(dp2675
g14
I00
sg32
I01
sg64
g78
sg15
I00
sbsg15
I01
sg16
I56
sg17
g18
sg2670
g0
(g97
g2
Ntp2676
Rp2677
(dp2678
g14
I00
sg32
I01
sg64
F0.3
sg15
I00
sbsg34
S'siStripQualityESProducer'
p2679
sg2671
g0
(g60
g2
Ntp2680
Rp2681
(dp2682
g14
I00
sg32
I01
sg64
I00
sg15
I00
sbsg2672
g0
(g60
g2
Ntp2683
Rp2684
(dp2685
g14
I00
sg32
I01
sg64
I00
sg15
I00
sbsg1021
g0
(g1025
g20
(lp2686
g0
(g1027
g2
Ntp2687
Rp2688
(dp2689
g14
I00
sg32
I01
sg15
I00
sg1031
g0
(g74
g2
Ntp2690
Rp2691
(dp2692
g14
I00
sg32
I01
sg64
S'SiStripDetVOffRcd'
p2693
sg15
I00
sbsg1036
g0
(g74
g2
Ntp2694
Rp2695
(dp2696
g14
I00
sg32
I01
sg64
g78
sg15
I00
sbsg11
(lp2697
g1031
ag1036
asbag0
(g1027
g2
Ntp2698
Rp2699
(dp2700
g14
I00
sg32
I01
sg15
I00
sg1031
g0
(g74
g2
Ntp2701
Rp2702
(dp2703
g14
I00
sg32
I01
sg64
S'SiStripDetCablingRcd'
p2704
sg15
I00
sbsg1036
g0
(g74
g2
Ntp2705
Rp2706
(dp2707
g14
I00
sg32
I01
sg64
g78
sg15
I00
sbsg11
(lp2708
g1031
ag1036
asbag0
(g1027
g2
Ntp2709
Rp2710
(dp2711
g14
I00
sg32
I01
sg15
I00
sg1031
g0
(g74
g2
Ntp2712
Rp2713
(dp2714
g14
I00
sg32
I01
sg64
S'RunInfoRcd'
p2715
sg15
I00
sbsg1036
g0
(g74
g2
Ntp2716
Rp2717
(dp2718
g14
I00
sg32
I01
sg64
g78
sg15
I00
sbsg11
(lp2719
g1031
ag1036
asbag0
(g1027
g2
Ntp2720
Rp2721
(dp2722
g14
I00
sg32
I01
sg15
I00
sg1031
g0
(g74
g2
Ntp2723
Rp2724
(dp2725
g14
I00
sg32
I01
sg64
S'SiStripBadChannelRcd'
p2726
sg15
I00
sbsg1036
g0
(g74
g2
Ntp2727
Rp2728
(dp2729
g14
I00
sg32
I01
sg64
g78
sg15
I00
sbsg11
(lp2730
g1031
ag1036
asbag0
(g1027
g2
Ntp2731
Rp2732
(dp2733
g14
I00
sg32
I01
sg15
I00
sg1031
g0
(g74
g2
Ntp2734
Rp2735
(dp2736
g14
I00
sg32
I01
sg64
S'SiStripBadFiberRcd'
p2737
sg15
I00
sbsg1036
g0
(g74
g2
Ntp2738
Rp2739
(dp2740
g14
I00
sg32
I01
sg64
g78
sg15
I00
sbsg11
(lp2741
g1031
ag1036
asbag0
(g1027
g2
Ntp2742
Rp2743
(dp2744
g14
I00
sg32
I01
sg15
I00
sg1031
g0
(g74
g2
Ntp2745
Rp2746
(dp2747
g14
I00
sg32
I01
sg64
S'SiStripBadModuleRcd'
p2748
sg15
I00
sbsg1036
g0
(g74
g2
Ntp2749
Rp2750
(dp2751
g14
I00
sg32
I01
sg64
g78
sg15
I00
sbsg11
(lp2752
g1031
ag1036
asbag0
(g1027
g2
Ntp2753
Rp2754
(dp2755
g14
I00
sg32
I01
sg15
I00
sg1031
g0
(g74
g2
Ntp2756
Rp2757
(dp2758
g14
I00
sg32
I01
sg64
S'SiStripBadStripRcd'
p2759
sg15
I00
sbsg1036
g0
(g74
g2
Ntp2760
Rp2761
(dp2762
g14
I00
sg32
I01
sg64
g78
sg15
I00
sbsg11
(lp2763
g1031
ag1036
asbatp2764
Rp2765
(dp2766
g14
I00
sg32
I01
sg15
I00
sg33
I1
sbsg35
S'SiStripQualityESProducer'
p2767
sg2669
g0
(g60
g2
Ntp2768
Rp2769
(dp2770
g14
I00
sg32
I01
sg64
I00
sg15
I00
sbsbsI139940949882512
g0
(g7
g2
Ntp2771
Rp2772
(dp2773
g11
(lp2774
sg14
I00
sg15
I00
sg16
I56
sg17
g18
sg34
S'GlobalTrackingGeometryESProducer'
p2775
sg35
g2775
sbsI139940949882576
g0
(g7
g2
Ntp2776
Rp2777
(dp2778
g11
(lp2779
sg14
I00
sg15
I00
sg16
I56
sg17
g18
sg34
S'TrackerRecoGeometryESProducer'
p2780
sg35
g2780
sbsI139940949882896
g1183
sI139940949959440
g0
(g7
g2
Ntp2781
Rp2782
(dp2783
g11
(lp2784
g997
asg14
I00
sg997
g0
(g74
g2
Ntp2785
Rp2786
(dp2787
g14
I00
sg32
I01
sg64
g1763
sg15
I01
sbsg15
I01
sg16
I5
sg17
S'/cvmfs/cms.cern.ch/slc7_amd64_gcc700/cms/cmssw/CMSSW_10_6_12/python/Alignment/CommonAlignmentProducer/fakeForIdealAlignmentProducer_cfi.py'
p2788
sg34
S'fakeForIdealAlignment'
p2789
sg35
S'FakeAlignmentProducer'
p2790
sbsI139940949960528
g0
(g7
g2
Ntp2791
Rp2792
(dp2793
g11
(lp2794
g997
ag1754
ag1008
ag1755
asg14
I00
sg997
g0
(g74
g2
Ntp2795
Rp2796
(dp2797
g14
I00
sg32
I01
sg64
g1759
sg15
I01
sbsg15
I01
sg1755
g0
(g74
g2
Ntp2798
Rp2799
(dp2800
g14
I00
sg32
I01
sg64
g1763
sg15
I01
sbsg17
S'/cvmfs/cms.cern.ch/slc7_amd64_gcc700/cms/cmssw/CMSSW_10_6_12/python/Geometry/DTGeometryBuilder/idealForDigiDtGeometryDB_cff.py'
p2801
sg16
I8
sg34
S'idealForDigiDTGeometry'
p2802
sg1754
g0
(g60
g2
Ntp2803
Rp2804
(dp2805
g14
I00
sg32
I01
sg64
I00
sg15
I00
sbsg1008
g0
(g60
g2
Ntp2806
Rp2807
(dp2808
g14
I00
sg32
I01
sg64
I00
sg15
I01
sbsg35
g1790
sbsI139940949915664
g1604
sI139940949961936
g146
sI139940949805200
g0
(g7
g2
Ntp2809
Rp2810
(dp2811
g11
(lp2812
S'ComponentType'
p2813
ag1137
aS'parameters'
p2814
asg14
I00
sg15
I00
sg2814
g0
(g1027
g2
Ntp2815
Rp2816
(dp2817
g14
I00
sg32
I01
sg15
I00
sg11
(lp2818
sbsg16
I56
sg1137
g0
(g74
g2
Ntp2819
Rp2820
(dp2821
g14
I00
sg32
I01
sg64
S'stripCPE'
p2822
sg15
I00
sbsg2813
g0
(g74
g2
Ntp2823
Rp2824
(dp2825
g14
I00
sg32
I01
sg64
S'SimpleStripCPE'
p2826
sg15
I00
sbsg17
g18
sg34
S'stripCPEESProducer'
p2827
sg35
S'StripCPEESProducer'
p2828
sbsI139940949913936
g1005
sI139940949805328
g0
(g7
g2
Ntp2829
Rp2830
(dp2831
g11
(lp2832
g2813
ag1137
ag2814
asg14
I00
sg15
I01
sg2814
g0
(g1027
g2
Ntp2833
Rp2834
(dp2835
g14
I00
sg32
I01
sS'maxChgOneMIP'
p2836
g0
(g97
g2
Ntp2837
Rp2838
(dp2839
g14
I00
sg32
I01
sg64
F6000.0
sg15
I00
sbsS'mLC_P2'
p2840
g0
(g97
g2
Ntp2841
Rp2842
(dp2843
g14
I00
sg32
I01
sg64
F0.3
sg15
I00
sbsS'mLC_P1'
p2844
g0
(g97
g2
Ntp2845
Rp2846
(dp2847
g14
I00
sg32
I01
sg64
F0.618
sg15
I00
sbsS'mLC_P0'
p2848
g0
(g97
g2
Ntp2849
Rp2850
(dp2851
g14
I00
sg32
I01
sg64
F-0.326
sg15
I00
sbsS'useLegacyError'
p2852
g0
(g60
g2
Ntp2853
Rp2854
(dp2855
g14
I00
sg32
I01
sg64
I00
sg15
I00
sbsS'mTIB_P1'
p2856
g0
(g97
g2
Ntp2857
Rp2858
(dp2859
g14
I00
sg32
I01
sg64
F0.202
sg15
I00
sbsS'mTEC_P1'
p2860
g0
(g97
g2
Ntp2861
Rp2862
(dp2863
g14
I00
sg32
I01
sg64
F0.471
sg15
I00
sbsS'mTEC_P0'
p2864
g0
(g97
g2
Ntp2865
Rp2866
(dp2867
g14
I00
sg32
I01
sg64
F-1.885
sg15
I00
sbsS'mTOB_P0'
p2868
g0
(g97
g2
Ntp2869
Rp2870
(dp2871
g14
I00
sg32
I01
sg64
F-1.026
sg15
I00
sbsS'mTOB_P1'
p2872
g0
(g97
g2
Ntp2873
Rp2874
(dp2875
g14
I00
sg32
I01
sg64
F0.253
sg15
I00
sbsS'mTIB_P0'
p2876
g0
(g97
g2
Ntp2877
Rp2878
(dp2879
g14
I00
sg32
I01
sg64
F-0.742
sg15
I00
sbsg11
(lp2880
g2836
ag2840
ag2844
ag2848
ag2852
ag2860
ag2864
ag2868
ag2872
ag2876
ag2856
aS'mTID_P0'
p2881
aS'mTID_P1'
p2882
asg2881
g0
(g97
g2
Ntp2883
Rp2884
(dp2885
g14
I00
sg32
I01
sg64
F-1.427
sg15
I00
sbsg2882
g0
(g97
g2
Ntp2886
Rp2887
(dp2888
g14
I00
sg32
I01
sg64
F0.433
sg15
I00
sbsg15
I00
sbsg16
I4
sg1137
g0
(g74
g2
Ntp2889
Rp2890
(dp2891
g14
I00
sg32
I01
sg64
S'StripCPEfromTrackAngle'
p2892
sg15
I00
sbsg2813
g0
(g74
g2
Ntp2893
Rp2894
(dp2895
g14
I00
sg32
I01
sg64
g2892
sg15
I00
sbsg17
S'/cvmfs/cms.cern.ch/slc7_amd64_gcc700/cms/cmssw/CMSSW_10_6_12/python/RecoLocalTracker/SiStripRecHitConverter/StripCPEfromTrackAngle_cfi.py'
p2896
sg34
S'StripCPEfromTrackAngleESProducer'
p2897
sg35
g2828
sbsI139940949915984
g1679
sI139940949883280
g1826
sI139940950174224
g1059
sI139940949856208
g0
(g7
g2
Ntp2898
Rp2899
(dp2900
g11
(lp2901
g2501
aS'compatibiltyWith11'
p2902
asg14
I00
sg15
I00
sg16
I56
sg17
g18
sg2501
g0
(g60
g2
Ntp2903
Rp2904
(dp2905
g14
I00
sg32
I00
sg64
I00
sg15
I00
sbsg2902
g0
(g60
g2
Ntp2906
Rp2907
(dp2908
g14
I00
sg32
I00
sg64
I01
sg15
I00
sbsg34
S'RPCGeometryESModule'
p2909
sg35
g2909
sbsI139940949752464
g0
(g7
g2
Ntp2910
Rp2911
(dp2912
g11
(lp2913
g997
asg14
I00
sg997
g0
(g74
g2
Ntp2914
Rp2915
(dp2916
g14
I00
sg32
I01
sg64
g78
sg15
I00
sbsg15
I00
sg16
I56
sg17
g18
sg34
S'CastorDbProducer'
p2917
sg35
g2917
sbsI139940949916432
g0
(g7
g2
Ntp2918
Rp2919
(dp2920
g11
(lp2921
sg14
I00
sg15
I00
sg16
I56
sg17
g18
sg34
S'EcalElectronicsMappingBuilder'
p2922
sg35
g2922
sbsI139940949883728
g9
sI139940950191696
g1612
sI139940949961488
g52
sI139940949916688
g1638
sI139940949496208
g41
sI139940949751312
g1738
sI139940950191760
g0
(g7
g2
Ntp2923
Rp2924
(dp2925
g11
(lp2926
S'file'
p2927
aS'dump'
p2928
asg14
I00
sg15
I00
sg2928
g0
(g19
g20
(lp2929
g78
atp2930
Rp2931
(dp2932
g14
I00
sg32
I00
sg15
I00
sg33
I1
sbsg16
I56
sg17
g18
sg2927
g0
(g74
g2
Ntp2933
Rp2934
(dp2935
g14
I00
sg32
I00
sg64
g78
sg15
I00
sbsg34
S'hcal_db_producer'
p2936
sg35
S'HcalDbProducer'
p2937
sbsI139940949804880
g1689
sI139940949496528
g1850
sI139940949884368
g2536
sI139940949917200
g994
sI139940949806672
g1831
sI139940949855888
g2498
sI139940949806800
g0
(g7
g2
Ntp2938
Rp2939
(dp2940
g11
(lp2941
sg14
I00
sg15
I00
sg16
I56
sg17
g18
sg34
S'sistripconn'
p2942
sg35
S'SiStripConnectivity'
p2943
sbsI139940949917520
g0
(g7
g2
Ntp2944
Rp2945
(dp2946
g11
(lp2947
g997
asg14
I00
sg997
g0
(g74
g2
Ntp2948
Rp2949
(dp2950
g14
I00
sg32
I01
sg64
g78
sg15
I00
sbsg15
I00
sg16
I56
sg17
g18
sg34
S'hcalDDDRecConstants'
p2951
sg35
S'HcalDDDRecConstantsESModule'
p2952
sbsI139940950172368
g0
(g7
g2
Ntp2953
Rp2954
(dp2955
g11
(lp2956
S'version'
p2957
ag1812
ag1698
asg14
I00
sg15
I01
sg16
I56
sg17
g18
sg1698
g0
(g74
g2
Ntp2958
Rp2959
(dp2960
g14
I00
sg32
I00
sg64
S'ParabolicMf'
p2961
sg15
I01
sbsg2957
g0
(g74
g2
Ntp2962
Rp2963
(dp2964
g14
I00
sg32
I01
sg64
S'Parabolic'
p2965
sg15
I00
sbsg1812
g0
(g66
g2
Ntp2966
Rp2967
(dp2968
g14
I00
sg32
I01
sg64
I-1
sg15
I00
sbsg34
S'ParabolicParametrizedMagneticFieldProducer'
p2969
sg35
S'AutoParametrizedMagneticFieldProducer'
p2970
sbsI139940949884816
g0
(g7
g2
Ntp2971
Rp2972
(dp2973
g11
(lp2974
g1008
asg14
I00
sg15
I01
sg16
I56
sg17
g18
sg34
S'HcalGeometryFromDBEP'
p2975
sg1008
g0
(g60
g2
Ntp2976
Rp2977
(dp2978
g14
I00
sg32
I01
sg64
I01
sg15
I01
sbsg35
g2975
sbsI139940949496080
g84
sI139940949884880
g0
(g7
g2
Ntp2979
Rp2980
(dp2981
g11
(lp2982
sg14
I00
sg15
I00
sg16
I56
sg17
g18
sg34
S'HcalAlignmentEP'
p2983
sg35
g2983
sbsI139940949884240
g0
(g7
g2
Ntp2984
Rp2985
(dp2986
g11
(lp2987
g1008
asg14
I00
sg15
I01
sg16
I56
sg17
g18
sg34
S'EcalPreshowerGeometryFromDBEP'
p2988
sg1008
g0
(g60
g2
Ntp2989
Rp2990
(dp2991
g14
I00
sg32
I01
sg64
I01
sg15
I01
sbsg35
g2988
sbsI139940949958736
g1751
sI139940949915344
g0
(g7
g2
Ntp2992
Rp2993
(dp2994
g11
(lp2995
g1008
asg14
I00
sg15
I00
sg16
I56
sg17
g18
sg34
S'ZdcGeometryFromDBEP'
p2996
sg1008
g0
(g60
g2
Ntp2997
Rp2998
(dp2999
g14
I00
sg32
I01
sg64
I00
sg15
I00
sbsg35
g2996
sbsI139940949803280
g0
(g7
g2
Ntp3000
Rp3001
(dp3002
g11
(lp3003
S'printDebug'
p3004
ag997
aS'APVGain'
p3005
aS'AutomaticNormalization'
p3006
asg14
I00
sg997
g0
(g74
g2
Ntp3007
Rp3008
(dp3009
g14
I00
sg32
I01
sg64
g78
sg15
I00
sbsg15
I00
sg3006
g0
(g60
g2
Ntp3010
Rp3011
(dp3012
g14
I00
sg32
I01
sg64
I00
sg15
I00
sbsg16
I56
sg3004
g0
(g60
g2
Ntp3013
Rp3014
(dp3015
g14
I00
sg32
I00
sg64
I00
sg15
I00
sbsg17
g18
sg3005
g0
(g1025
g20
(lp3016
g0
(g1027
g2
Ntp3017
Rp3018
(dp3019
g14
I00
sg32
I01
sg15
I00
sS'Label'
p3020
g0
(g74
g2
Ntp3021
Rp3022
(dp3023
g14
I00
sg32
I00
sg64
g78
sg15
I00
sbsS'Record'
p3024
g0
(g74
g2
Ntp3025
Rp3026
(dp3027
g14
I00
sg32
I01
sg64
S'SiStripApvGainRcd'
p3028
sg15
I00
sbsS'NormalizationFactor'
p3029
g0
(g97
g2
Ntp3030
Rp3031
(dp3032
g14
I00
sg32
I00
sg64
F1.0
sg15
I00
sbsg11
(lp3033
g3024
ag3029
ag3020
asbag0
(g1027
g2
Ntp3034
Rp3035
(dp3036
g14
I00
sg32
I01
sg15
I00
sg3020
g0
(g74
g2
Ntp3037
Rp3038
(dp3039
g14
I00
sg32
I00
sg64
g78
sg15
I00
sbsg3024
g0
(g74
g2
Ntp3040
Rp3041
(dp3042
g14
I00
sg32
I01
sg64
S'SiStripApvGain2Rcd'
p3043
sg15
I00
sbsg3029
g0
(g97
g2
Ntp3044
Rp3045
(dp3046
g14
I00
sg32
I00
sg64
F1.0
sg15
I00
sbsg11
(lp3047
g3024
ag3029
ag3020
asbatp3048
Rp3049
(dp3050
g14
I00
sg32
I01
sg15
I00
sg33
I1
sbsg34
S'siStripGainESProducer'
p3051
sg35
S'SiStripGainESProducer'
p3052
sbsI139940950171984
g1809
sI139940949852496
g1017
sI139940949750160
g1860
sI139940949496400
g1783
sI139940949881488
g1792
sI139940949881872
g2544
sI139940950109840
g1134
ssg3051
g3001
sg2909
g2899
sg2942
g2939
sg2996
g2993
sg2780
g2777
sg2611
g2596
sg2647
g2644
sg2969
g2954
sg2827
g2810
sg2641
g2635
sg73
g52
sg2975
g2972
sg1735
g1738
sg2922
g2919
sg2897
g2830
sS'_Process__aliases'
p3053
(dp3054
sg2775
g2772
sg2658
g2649
sg2983
g2980
sg2988
g2985
sg2951
g2945
sg2917
g2911
sg2588
g2563
sS'_Process__subProcesses'
p3055
(lp3056
sg2936
g2924
sg2561
g2558
sS'_Process__schedule'
p3057
Nsg2679
g2666
sg2802
g2792
sS'_Process__modifiers'
p3058
(tsS'_Process__filters'
p3059
(dp3060
sS'_Process__esproducers'
p3061
(dp3062
g6
g9
sg1790
g1792
sg1807
g1809
sg2897
g2830
sg1602
g1604
sg1824
g1826
sg2775
g2772
sg2658
g2649
sg1829
g1831
sg2996
g2993
sg2983
g2980
sg2988
g2985
sg2917
g2911
sg2951
g2945
sg2496
g2498
sg2534
g2536
sg2542
g2544
sg1677
g1679
sg2588
g2563
sg1003
g1005
sg1687
g1689
sg2936
g2924
sg3051
g3001
sg2909
g2899
sg2942
g2939
sg2561
g2558
sg2922
g2919
sg2679
g2666
sg2802
g2792
sg1658
g1660
sg1015
g1017
sg2611
g2596
sg2647
g2644
sg2969
g2954
sg1132
g1134
sg2827
g2810
sg992
g994
sg1181
g1183
sg2641
g2635
sg2780
g2777
sg1186
g1188
sg2789
g2782
sg1749
g1751
sg2975
g2972
ssS'_Process__partialschedules'
p3063
(dp3064
sg2789
g2782
sb.